Archive member included to satisfy reference by file (symbol)

..\CMSIS-4.5.0\CMSIS-4.5.0\CMSIS\Lib\GCC\libarm_cortexM4lf_math.a(arm_const_structs.o)
                              obj\release\src\filter_noise_reduction.o (arm_cfft_sR_f32_len256)
..\CMSIS-4.5.0\CMSIS-4.5.0\CMSIS\Lib\GCC\libarm_cortexM4lf_math.a(arm_common_tables.o)
                              ..\CMSIS-4.5.0\CMSIS-4.5.0\CMSIS\Lib\GCC\libarm_cortexM4lf_math.a(arm_const_structs.o) (armBitRevIndexTable_fixed_4096)
..\CMSIS-4.5.0\CMSIS-4.5.0\CMSIS\Lib\GCC\libarm_cortexM4lf_math.a(arm_q15_to_float.o)
                              obj\release\src\main.o (arm_q15_to_float)
..\CMSIS-4.5.0\CMSIS-4.5.0\CMSIS\Lib\GCC\libarm_cortexM4lf_math.a(arm_float_to_q15.o)
                              obj\release\src\main.o (arm_float_to_q15)
..\CMSIS-4.5.0\CMSIS-4.5.0\CMSIS\Lib\GCC\libarm_cortexM4lf_math.a(arm_max_f32.o)
                              obj\release\src\filter_noise_reduction.o (arm_max_f32)
..\CMSIS-4.5.0\CMSIS-4.5.0\CMSIS\Lib\GCC\libarm_cortexM4lf_math.a(arm_cfft_f32.o)
                              obj\release\src\filter_noise_reduction.o (arm_cfft_f32)
..\CMSIS-4.5.0\CMSIS-4.5.0\CMSIS\Lib\GCC\libarm_cortexM4lf_math.a(arm_lms_init_f32.o)
                              obj\release\src\main.o (arm_lms_init_f32)
..\CMSIS-4.5.0\CMSIS-4.5.0\CMSIS\Lib\GCC\libarm_cortexM4lf_math.a(arm_lms_f32.o)
                              obj\release\src\filter_noise_reduction.o (arm_lms_f32)
..\CMSIS-4.5.0\CMSIS-4.5.0\CMSIS\Lib\GCC\libarm_cortexM4lf_math.a(arm_fir_init_f32.o)
                              obj\release\src\main.o (arm_fir_init_f32)
..\CMSIS-4.5.0\CMSIS-4.5.0\CMSIS\Lib\GCC\libarm_cortexM4lf_math.a(arm_fir_f32.o)
                              obj\release\src\main.o (arm_fir_f32)
..\CMSIS-4.5.0\CMSIS-4.5.0\CMSIS\Lib\GCC\libarm_cortexM4lf_math.a(arm_cmplx_mag_f32.o)
                              obj\release\src\filter_noise_reduction.o (arm_cmplx_mag_f32)
..\CMSIS-4.5.0\CMSIS-4.5.0\CMSIS\Lib\GCC\libarm_cortexM4lf_math.a(arm_sin_f32.o)
                              obj\release\src\filter_noise_reduction.o (arm_sin_f32)
..\CMSIS-4.5.0\CMSIS-4.5.0\CMSIS\Lib\GCC\libarm_cortexM4lf_math.a(arm_cos_f32.o)
                              obj\release\src\filter_noise_reduction.o (arm_cos_f32)
..\CMSIS-4.5.0\CMSIS-4.5.0\CMSIS\Lib\GCC\libarm_cortexM4lf_math.a(arm_bitreversal2.o)
                              ..\CMSIS-4.5.0\CMSIS-4.5.0\CMSIS\Lib\GCC\libarm_cortexM4lf_math.a(arm_cfft_f32.o) (arm_bitreversal_32)
..\CMSIS-4.5.0\CMSIS-4.5.0\CMSIS\Lib\GCC\libarm_cortexM4lf_math.a(arm_cfft_radix8_f32.o)
                              ..\CMSIS-4.5.0\CMSIS-4.5.0\CMSIS\Lib\GCC\libarm_cortexM4lf_math.a(arm_cfft_f32.o) (arm_radix8_butterfly_f32)
c:/program files (x86)/embitz/1.11/share/em_armgcc/bin/../lib/gcc/arm-none-eabi/5.4.1/../../../../arm-none-eabi/lib/armv7e-m/fpu\libm.a(lib_a-cargf.o)
                              obj\release\src\filter_noise_reduction.o (cargf)
c:/program files (x86)/embitz/1.11/share/em_armgcc/bin/../lib/gcc/arm-none-eabi/5.4.1/../../../../arm-none-eabi/lib/armv7e-m/fpu\libm.a(lib_a-cimagf.o)
                              c:/program files (x86)/embitz/1.11/share/em_armgcc/bin/../lib/gcc/arm-none-eabi/5.4.1/../../../../arm-none-eabi/lib/armv7e-m/fpu\libm.a(lib_a-cargf.o) (cimagf)
c:/program files (x86)/embitz/1.11/share/em_armgcc/bin/../lib/gcc/arm-none-eabi/5.4.1/../../../../arm-none-eabi/lib/armv7e-m/fpu\libm.a(lib_a-crealf.o)
                              c:/program files (x86)/embitz/1.11/share/em_armgcc/bin/../lib/gcc/arm-none-eabi/5.4.1/../../../../arm-none-eabi/lib/armv7e-m/fpu\libm.a(lib_a-cargf.o) (crealf)
c:/program files (x86)/embitz/1.11/share/em_armgcc/bin/../lib/gcc/arm-none-eabi/5.4.1/../../../../arm-none-eabi/lib/armv7e-m/fpu\libm.a(lib_a-wf_atan2.o)
                              c:/program files (x86)/embitz/1.11/share/em_armgcc/bin/../lib/gcc/arm-none-eabi/5.4.1/../../../../arm-none-eabi/lib/armv7e-m/fpu\libm.a(lib_a-cargf.o) (atan2f)
c:/program files (x86)/embitz/1.11/share/em_armgcc/bin/../lib/gcc/arm-none-eabi/5.4.1/../../../../arm-none-eabi/lib/armv7e-m/fpu\libm.a(lib_a-wf_sqrt.o)
                              ..\CMSIS-4.5.0\CMSIS-4.5.0\CMSIS\Lib\GCC\libarm_cortexM4lf_math.a(arm_cmplx_mag_f32.o) (sqrtf)
c:/program files (x86)/embitz/1.11/share/em_armgcc/bin/../lib/gcc/arm-none-eabi/5.4.1/../../../../arm-none-eabi/lib/armv7e-m/fpu\libm.a(lib_a-ef_atan2.o)
                              c:/program files (x86)/embitz/1.11/share/em_armgcc/bin/../lib/gcc/arm-none-eabi/5.4.1/../../../../arm-none-eabi/lib/armv7e-m/fpu\libm.a(lib_a-wf_atan2.o) (__ieee754_atan2f)
c:/program files (x86)/embitz/1.11/share/em_armgcc/bin/../lib/gcc/arm-none-eabi/5.4.1/../../../../arm-none-eabi/lib/armv7e-m/fpu\libm.a(lib_a-ef_sqrt.o)
                              c:/program files (x86)/embitz/1.11/share/em_armgcc/bin/../lib/gcc/arm-none-eabi/5.4.1/../../../../arm-none-eabi/lib/armv7e-m/fpu\libm.a(lib_a-wf_sqrt.o) (__ieee754_sqrtf)
c:/program files (x86)/embitz/1.11/share/em_armgcc/bin/../lib/gcc/arm-none-eabi/5.4.1/../../../../arm-none-eabi/lib/armv7e-m/fpu\libm.a(lib_a-s_lib_ver.o)
                              c:/program files (x86)/embitz/1.11/share/em_armgcc/bin/../lib/gcc/arm-none-eabi/5.4.1/../../../../arm-none-eabi/lib/armv7e-m/fpu\libm.a(lib_a-wf_sqrt.o) (__fdlib_version)
c:/program files (x86)/embitz/1.11/share/em_armgcc/bin/../lib/gcc/arm-none-eabi/5.4.1/../../../../arm-none-eabi/lib/armv7e-m/fpu\libm.a(lib_a-s_matherr.o)
                              c:/program files (x86)/embitz/1.11/share/em_armgcc/bin/../lib/gcc/arm-none-eabi/5.4.1/../../../../arm-none-eabi/lib/armv7e-m/fpu\libm.a(lib_a-wf_sqrt.o) (matherr)
c:/program files (x86)/embitz/1.11/share/em_armgcc/bin/../lib/gcc/arm-none-eabi/5.4.1/../../../../arm-none-eabi/lib/armv7e-m/fpu\libm.a(lib_a-sf_atan.o)
                              c:/program files (x86)/embitz/1.11/share/em_armgcc/bin/../lib/gcc/arm-none-eabi/5.4.1/../../../../arm-none-eabi/lib/armv7e-m/fpu\libm.a(lib_a-ef_atan2.o) (atanf)
c:/program files (x86)/embitz/1.11/share/em_armgcc/bin/../lib/gcc/arm-none-eabi/5.4.1/../../../../arm-none-eabi/lib/armv7e-m/fpu\libm.a(lib_a-sf_fabs.o)
                              c:/program files (x86)/embitz/1.11/share/em_armgcc/bin/../lib/gcc/arm-none-eabi/5.4.1/../../../../arm-none-eabi/lib/armv7e-m/fpu\libm.a(lib_a-ef_atan2.o) (fabsf)
c:/program files (x86)/embitz/1.11/share/em_armgcc/bin/../lib/gcc/arm-none-eabi/5.4.1/armv7e-m/fpu\libgcc.a(_arm_addsubdf3.o)
                              obj\release\src\filter_noise_reduction.o (__aeabi_dsub)
c:/program files (x86)/embitz/1.11/share/em_armgcc/bin/../lib/gcc/arm-none-eabi/5.4.1/armv7e-m/fpu\libgcc.a(_arm_muldivdf3.o)
                              obj\release\src\filter_noise_reduction.o (__aeabi_dmul)
c:/program files (x86)/embitz/1.11/share/em_armgcc/bin/../lib/gcc/arm-none-eabi/5.4.1/armv7e-m/fpu\libgcc.a(_arm_truncdfsf2.o)
                              obj\release\src\filter_noise_reduction.o (__aeabi_d2f)
c:/program files (x86)/embitz/1.11/share/em_armgcc/bin/../lib/gcc/arm-none-eabi/5.4.1/../../../../arm-none-eabi/lib/armv7e-m/fpu\libg_n.a(lib_a-errno.o)
                              c:/program files (x86)/embitz/1.11/share/em_armgcc/bin/../lib/gcc/arm-none-eabi/5.4.1/../../../../arm-none-eabi/lib/armv7e-m/fpu\libm.a(lib_a-wf_sqrt.o) (__errno)
c:/program files (x86)/embitz/1.11/share/em_armgcc/bin/../lib/gcc/arm-none-eabi/5.4.1/../../../../arm-none-eabi/lib/armv7e-m/fpu\libg_n.a(lib_a-exit.o)
                              c:/program files (x86)/embitz/1.11/share/em_armgcc/bin/../lib/gcc/arm-none-eabi/5.4.1/../../../../arm-none-eabi/lib/armv7e-m/fpu/crt0.o (exit)
c:/program files (x86)/embitz/1.11/share/em_armgcc/bin/../lib/gcc/arm-none-eabi/5.4.1/../../../../arm-none-eabi/lib/armv7e-m/fpu\libg_n.a(lib_a-impure.o)
                              c:/program files (x86)/embitz/1.11/share/em_armgcc/bin/../lib/gcc/arm-none-eabi/5.4.1/../../../../arm-none-eabi/lib/armv7e-m/fpu\libg_n.a(lib_a-exit.o) (_global_impure_ptr)
c:/program files (x86)/embitz/1.11/share/em_armgcc/bin/../lib/gcc/arm-none-eabi/5.4.1/../../../../arm-none-eabi/lib/armv7e-m/fpu\libg_n.a(lib_a-init.o)
                              c:/program files (x86)/embitz/1.11/share/em_armgcc/bin/../lib/gcc/arm-none-eabi/5.4.1/../../../../arm-none-eabi/lib/armv7e-m/fpu/crt0.o (__libc_init_array)
c:/program files (x86)/embitz/1.11/share/em_armgcc/bin/../lib/gcc/arm-none-eabi/5.4.1/../../../../arm-none-eabi/lib/armv7e-m/fpu\libg_n.a(lib_a-memset.o)
                              c:/program files (x86)/embitz/1.11/share/em_armgcc/bin/../lib/gcc/arm-none-eabi/5.4.1/../../../../arm-none-eabi/lib/armv7e-m/fpu/crt0.o (memset)
c:/program files (x86)/embitz/1.11/share/em_armgcc/bin/../lib/gcc/arm-none-eabi/5.4.1/../../../../arm-none-eabi/lib/armv7e-m/fpu\libg_n.a(lib_a-sprintf.o)
                              obj\release\src\io_display.o (sprintf)
c:/program files (x86)/embitz/1.11/share/em_armgcc/bin/../lib/gcc/arm-none-eabi/5.4.1/../../../../arm-none-eabi/lib/armv7e-m/fpu\libg_n.a(lib_a-nano-svfprintf.o)
                              c:/program files (x86)/embitz/1.11/share/em_armgcc/bin/../lib/gcc/arm-none-eabi/5.4.1/../../../../arm-none-eabi/lib/armv7e-m/fpu\libg_n.a(lib_a-sprintf.o) (_svfprintf_r)
c:/program files (x86)/embitz/1.11/share/em_armgcc/bin/../lib/gcc/arm-none-eabi/5.4.1/../../../../arm-none-eabi/lib/armv7e-m/fpu\libg_n.a(lib_a-nano-vfprintf_i.o)
                              c:/program files (x86)/embitz/1.11/share/em_armgcc/bin/../lib/gcc/arm-none-eabi/5.4.1/../../../../arm-none-eabi/lib/armv7e-m/fpu\libg_n.a(lib_a-nano-svfprintf.o) (_printf_i)
c:/program files (x86)/embitz/1.11/share/em_armgcc/bin/../lib/gcc/arm-none-eabi/5.4.1/../../../../arm-none-eabi/lib/armv7e-m/fpu\libg_n.a(lib_a-memchr.o)
                              c:/program files (x86)/embitz/1.11/share/em_armgcc/bin/../lib/gcc/arm-none-eabi/5.4.1/../../../../arm-none-eabi/lib/armv7e-m/fpu\libg_n.a(lib_a-nano-svfprintf.o) (memchr)
c:/program files (x86)/embitz/1.11/share/em_armgcc/bin/../lib/gcc/arm-none-eabi/5.4.1/../../../../arm-none-eabi/lib/armv7e-m/fpu\libg_n.a(lib_a-memcpy-stub.o)
                              c:/program files (x86)/embitz/1.11/share/em_armgcc/bin/../lib/gcc/arm-none-eabi/5.4.1/../../../../arm-none-eabi/lib/armv7e-m/fpu\libg_n.a(lib_a-nano-svfprintf.o) (memcpy)
c:/program files (x86)/embitz/1.11/share/em_armgcc/bin/../lib/gcc/arm-none-eabi/5.4.1/../../../../arm-none-eabi/lib/armv7e-m/fpu\libg_n.a(lib_a-memmove.o)
                              c:/program files (x86)/embitz/1.11/share/em_armgcc/bin/../lib/gcc/arm-none-eabi/5.4.1/../../../../arm-none-eabi/lib/armv7e-m/fpu\libg_n.a(lib_a-nano-svfprintf.o) (memmove)
c:/program files (x86)/embitz/1.11/share/em_armgcc/bin/../lib/gcc/arm-none-eabi/5.4.1/../../../../arm-none-eabi/lib/armv7e-m/fpu\libg_n.a(lib_a-nano-freer.o)
                              c:/program files (x86)/embitz/1.11/share/em_armgcc/bin/../lib/gcc/arm-none-eabi/5.4.1/../../../../arm-none-eabi/lib/armv7e-m/fpu\libg_n.a(lib_a-nano-svfprintf.o) (_free_r)
c:/program files (x86)/embitz/1.11/share/em_armgcc/bin/../lib/gcc/arm-none-eabi/5.4.1/../../../../arm-none-eabi/lib/armv7e-m/fpu\libg_n.a(lib_a-nano-mallocr.o)
                              c:/program files (x86)/embitz/1.11/share/em_armgcc/bin/../lib/gcc/arm-none-eabi/5.4.1/../../../../arm-none-eabi/lib/armv7e-m/fpu\libg_n.a(lib_a-nano-svfprintf.o) (_malloc_r)
c:/program files (x86)/embitz/1.11/share/em_armgcc/bin/../lib/gcc/arm-none-eabi/5.4.1/../../../../arm-none-eabi/lib/armv7e-m/fpu\libg_n.a(lib_a-nano-reallocr.o)
                              c:/program files (x86)/embitz/1.11/share/em_armgcc/bin/../lib/gcc/arm-none-eabi/5.4.1/../../../../arm-none-eabi/lib/armv7e-m/fpu\libg_n.a(lib_a-nano-svfprintf.o) (_realloc_r)
c:/program files (x86)/embitz/1.11/share/em_armgcc/bin/../lib/gcc/arm-none-eabi/5.4.1/../../../../arm-none-eabi/lib/armv7e-m/fpu\libg_n.a(lib_a-sbrkr.o)
                              c:/program files (x86)/embitz/1.11/share/em_armgcc/bin/../lib/gcc/arm-none-eabi/5.4.1/../../../../arm-none-eabi/lib/armv7e-m/fpu\libg_n.a(lib_a-nano-mallocr.o) (_sbrk_r)
c:/program files (x86)/embitz/1.11/share/em_armgcc/bin/../lib/gcc/arm-none-eabi/5.4.1/../../../../arm-none-eabi/lib/armv7e-m/fpu\libg_n.a(lib_a-mlock.o)
                              c:/program files (x86)/embitz/1.11/share/em_armgcc/bin/../lib/gcc/arm-none-eabi/5.4.1/../../../../arm-none-eabi/lib/armv7e-m/fpu\libg_n.a(lib_a-nano-freer.o) (__malloc_lock)
c:/program files (x86)/embitz/1.11/share/em_armgcc/bin/../lib/gcc/arm-none-eabi/5.4.1/../../../../arm-none-eabi/lib/armv7e-m/fpu\libg_n.a(lib_a-nano-msizer.o)
                              c:/program files (x86)/embitz/1.11/share/em_armgcc/bin/../lib/gcc/arm-none-eabi/5.4.1/../../../../arm-none-eabi/lib/armv7e-m/fpu\libg_n.a(lib_a-nano-reallocr.o) (_malloc_usable_size_r)
c:/program files (x86)/embitz/1.11/share/em_armgcc/bin/../lib/gcc/arm-none-eabi/5.4.1/../../../../arm-none-eabi/lib/armv7e-m/fpu\libg_n.a(lib_a-reent.o)
                              c:/program files (x86)/embitz/1.11/share/em_armgcc/bin/../lib/gcc/arm-none-eabi/5.4.1/../../../../arm-none-eabi/lib/armv7e-m/fpu\libg_n.a(lib_a-sbrkr.o) (errno)
c:/program files (x86)/embitz/1.11/share/em_armgcc/bin/../lib/gcc/arm-none-eabi/5.4.1/../../../../arm-none-eabi/lib/armv7e-m/fpu\libnosys_s.a(sbrk.o)
                              c:/program files (x86)/embitz/1.11/share/em_armgcc/bin/../lib/gcc/arm-none-eabi/5.4.1/../../../../arm-none-eabi/lib/armv7e-m/fpu\libg_n.a(lib_a-sbrkr.o) (_sbrk)
c:/program files (x86)/embitz/1.11/share/em_armgcc/bin/../lib/gcc/arm-none-eabi/5.4.1/../../../../arm-none-eabi/lib/armv7e-m/fpu\libnosys_s.a(_exit.o)
                              c:/program files (x86)/embitz/1.11/share/em_armgcc/bin/../lib/gcc/arm-none-eabi/5.4.1/../../../../arm-none-eabi/lib/armv7e-m/fpu\libg_n.a(lib_a-exit.o) (_exit)

Allocating common symbols
Common symbol       size              file

S3                  0xc               obj\release\src\main.o
bufferPreOut        0x400             obj\release\src\filter_noise_reduction.o
FFTBufferMag        0x800             obj\release\src\filter_noise_reduction.o
pCoeffs             0x80              obj\release\src\filter_audio_segnal.o
errno               0x4               c:/program files (x86)/embitz/1.11/share/em_armgcc/bin/../lib/gcc/arm-none-eabi/5.4.1/../../../../arm-none-eabi/lib/armv7e-m/fpu\libg_n.a(lib_a-reent.o)
morseBuffer         0x28              obj\release\src\morsedecode.o
lmsStateF32         0x480             obj\release\src\filter_audio_segnal.o
OutputBuffer        0x400             obj\release\src\filter_noise_reduction.o
maxValue            0x4               obj\release\src\filter_noise_reduction.o
ILI9341_x           0x2               obj\release\src\tm_spi\tm_stm32f4_ili9341.o
S                   0xc               obj\release\src\main.o
FFTBufferMagPlot    0x400             obj\release\src\main.o
FFTBufferTmp        0x800             obj\release\src\filter_noise_reduction.o
Sl_LMS              0x10              obj\release\src\filter_audio_segnal.o
ILI9341_Opts        0x6               obj\release\src\tm_spi\tm_stm32f4_ili9341.o
errOutput           0x400             obj\release\src\filter_audio_segnal.o
maxIndex            0x4               obj\release\src\filter_noise_reduction.o
FFTBufferMagPlot_OLD
                    0x400             obj\release\src\main.o
maxIndex_OLD        0x4               obj\release\src\filter_noise_reduction.o
bufferIn            0x4               obj\release\src\morsedecode.o
S4                  0xc               obj\release\src\main.o
ADC_ConvertedValue  0x400             obj\release\src\filter_noise_reduction.o
FLTBufferTmp        0x800             obj\release\src\main.o
S2                  0xc               obj\release\src\main.o
FFTBufferOut        0x800             obj\release\src\filter_noise_reduction.o
maxValue_OLD        0x4               obj\release\src\filter_noise_reduction.o
ticks               0x4               obj\release\src\main.o
ILI9341_y           0x2               obj\release\src\tm_spi\tm_stm32f4_ili9341.o
peakLevel           0x4               obj\release\src\morsedecode.o

Memory Configuration

Name             Origin             Length             Attributes
ROM              0x08000000         0x00080000         xr
RAM              0x20000000         0x00020000         xrw
CCRAM            0x10000000         0x00010000         xrw
*default*        0x00000000         0xffffffff

Linker script and memory map

LOAD c:/program files (x86)/embitz/1.11/share/em_armgcc/bin/../lib/gcc/arm-none-eabi/5.4.1/armv7e-m/fpu/crti.o
LOAD c:/program files (x86)/embitz/1.11/share/em_armgcc/bin/../lib/gcc/arm-none-eabi/5.4.1/armv7e-m/fpu/crtbegin.o
LOAD c:/program files (x86)/embitz/1.11/share/em_armgcc/bin/../lib/gcc/arm-none-eabi/5.4.1/../../../../arm-none-eabi/lib/armv7e-m/fpu/crt0.o
                0x00000000                __HEAP_SIZE = 0x0
                0x00000100                __STACK_SIZE = 0x100

.text           0x08000000    0x4951c
 *(.isr_vector)
 .isr_vector    0x08000000      0x188 obj\release\src\startup_stm32f4xx.o
                0x08000000                __isr_vector
 *(.text*)
 .text          0x08000188        0x0 c:/program files (x86)/embitz/1.11/share/em_armgcc/bin/../lib/gcc/arm-none-eabi/5.4.1/armv7e-m/fpu/crti.o
 .text          0x08000188       0x5c c:/program files (x86)/embitz/1.11/share/em_armgcc/bin/../lib/gcc/arm-none-eabi/5.4.1/armv7e-m/fpu/crtbegin.o
 .text          0x080001e4       0x74 c:/program files (x86)/embitz/1.11/share/em_armgcc/bin/../lib/gcc/arm-none-eabi/5.4.1/../../../../arm-none-eabi/lib/armv7e-m/fpu/crt0.o
                0x080001e4                _start
                0x080001e4                _mainCRTStartup
 .text          0x08000258        0x0 obj\release\spl\src\misc.o
 .text.NVIC_PriorityGroupConfig
                0x08000258       0x14 obj\release\spl\src\misc.o
                0x08000258                NVIC_PriorityGroupConfig
 .text.NVIC_Init
                0x0800026c       0x70 obj\release\spl\src\misc.o
                0x0800026c                NVIC_Init
 .text.NVIC_SetVectorTable
                0x080002dc       0x14 obj\release\spl\src\misc.o
                0x080002dc                NVIC_SetVectorTable
 .text.NVIC_SystemLPConfig
                0x080002f0       0x18 obj\release\spl\src\misc.o
                0x080002f0                NVIC_SystemLPConfig
 .text.SysTick_CLKSourceConfig
                0x08000308       0x18 obj\release\spl\src\misc.o
                0x08000308                SysTick_CLKSourceConfig
 .text          0x08000320        0x0 obj\release\spl\src\stm32f4xx_adc.o
 .text.ADC_DeInit
                0x08000320       0x1c obj\release\spl\src\stm32f4xx_adc.o
                0x08000320                ADC_DeInit
 .text.ADC_Init
                0x0800033c       0x4c obj\release\spl\src\stm32f4xx_adc.o
                0x0800033c                ADC_Init
 .text.ADC_StructInit
                0x08000388       0x14 obj\release\spl\src\stm32f4xx_adc.o
                0x08000388                ADC_StructInit
 .text.ADC_CommonInit
                0x0800039c       0x28 obj\release\spl\src\stm32f4xx_adc.o
                0x0800039c                ADC_CommonInit
 .text.ADC_CommonStructInit
                0x080003c4        0xc obj\release\spl\src\stm32f4xx_adc.o
                0x080003c4                ADC_CommonStructInit
 .text.ADC_Cmd  0x080003d0       0x14 obj\release\spl\src\stm32f4xx_adc.o
                0x080003d0                ADC_Cmd
 .text.ADC_AnalogWatchdogCmd
                0x080003e4       0x10 obj\release\spl\src\stm32f4xx_adc.o
                0x080003e4                ADC_AnalogWatchdogCmd
 .text.ADC_AnalogWatchdogThresholdsConfig
                0x080003f4        0x8 obj\release\spl\src\stm32f4xx_adc.o
                0x080003f4                ADC_AnalogWatchdogThresholdsConfig
 .text.ADC_AnalogWatchdogSingleChannelConfig
                0x080003fc        0xc obj\release\spl\src\stm32f4xx_adc.o
                0x080003fc                ADC_AnalogWatchdogSingleChannelConfig
 .text.ADC_TempSensorVrefintCmd
                0x08000408       0x1c obj\release\spl\src\stm32f4xx_adc.o
                0x08000408                ADC_TempSensorVrefintCmd
 .text.ADC_VBATCmd
                0x08000424       0x1c obj\release\spl\src\stm32f4xx_adc.o
                0x08000424                ADC_VBATCmd
 .text.ADC_RegularChannelConfig
                0x08000440       0x94 obj\release\spl\src\stm32f4xx_adc.o
                0x08000440                ADC_RegularChannelConfig
 .text.ADC_SoftwareStartConv
                0x080004d4        0xc obj\release\spl\src\stm32f4xx_adc.o
                0x080004d4                ADC_SoftwareStartConv
 .text.ADC_GetSoftwareStartConvStatus
                0x080004e0        0x8 obj\release\spl\src\stm32f4xx_adc.o
                0x080004e0                ADC_GetSoftwareStartConvStatus
 .text.ADC_EOCOnEachRegularChannelCmd
                0x080004e8       0x14 obj\release\spl\src\stm32f4xx_adc.o
                0x080004e8                ADC_EOCOnEachRegularChannelCmd
 .text.ADC_ContinuousModeCmd
                0x080004fc       0x14 obj\release\spl\src\stm32f4xx_adc.o
                0x080004fc                ADC_ContinuousModeCmd
 .text.ADC_DiscModeChannelCountConfig
                0x08000510       0x10 obj\release\spl\src\stm32f4xx_adc.o
                0x08000510                ADC_DiscModeChannelCountConfig
 .text.ADC_DiscModeCmd
                0x08000520       0x14 obj\release\spl\src\stm32f4xx_adc.o
                0x08000520                ADC_DiscModeCmd
 .text.ADC_GetConversionValue
                0x08000534        0x8 obj\release\spl\src\stm32f4xx_adc.o
                0x08000534                ADC_GetConversionValue
 .text.ADC_GetMultiModeConversionValue
                0x0800053c        0xc obj\release\spl\src\stm32f4xx_adc.o
                0x0800053c                ADC_GetMultiModeConversionValue
 .text.ADC_DMACmd
                0x08000548       0x14 obj\release\spl\src\stm32f4xx_adc.o
                0x08000548                ADC_DMACmd
 .text.ADC_DMARequestAfterLastTransferCmd
                0x0800055c       0x14 obj\release\spl\src\stm32f4xx_adc.o
                0x0800055c                ADC_DMARequestAfterLastTransferCmd
 .text.ADC_MultiModeDMARequestAfterLastTransferCmd
                0x08000570       0x1c obj\release\spl\src\stm32f4xx_adc.o
                0x08000570                ADC_MultiModeDMARequestAfterLastTransferCmd
 .text.ADC_InjectedChannelConfig
                0x0800058c       0x58 obj\release\spl\src\stm32f4xx_adc.o
                0x0800058c                ADC_InjectedChannelConfig
 .text.ADC_InjectedSequencerLengthConfig
                0x080005e4       0x10 obj\release\spl\src\stm32f4xx_adc.o
                0x080005e4                ADC_InjectedSequencerLengthConfig
 .text.ADC_SetInjectedOffset
                0x080005f4       0x18 obj\release\spl\src\stm32f4xx_adc.o
                0x080005f4                ADC_SetInjectedOffset
 .text.ADC_ExternalTrigInjectedConvConfig
                0x0800060c        0xc obj\release\spl\src\stm32f4xx_adc.o
                0x0800060c                ADC_ExternalTrigInjectedConvConfig
 .text.ADC_ExternalTrigInjectedConvEdgeConfig
                0x08000618        0xc obj\release\spl\src\stm32f4xx_adc.o
                0x08000618                ADC_ExternalTrigInjectedConvEdgeConfig
 .text.ADC_SoftwareStartInjectedConv
                0x08000624        0xc obj\release\spl\src\stm32f4xx_adc.o
                0x08000624                ADC_SoftwareStartInjectedConv
 .text.ADC_GetSoftwareStartInjectedConvCmdStatus
                0x08000630        0x8 obj\release\spl\src\stm32f4xx_adc.o
                0x08000630                ADC_GetSoftwareStartInjectedConvCmdStatus
 .text.ADC_AutoInjectedConvCmd
                0x08000638       0x14 obj\release\spl\src\stm32f4xx_adc.o
                0x08000638                ADC_AutoInjectedConvCmd
 .text.ADC_InjectedDiscModeCmd
                0x0800064c       0x14 obj\release\spl\src\stm32f4xx_adc.o
                0x0800064c                ADC_InjectedDiscModeCmd
 .text.ADC_GetInjectedConversionValue
                0x08000660       0x1c obj\release\spl\src\stm32f4xx_adc.o
                0x08000660                ADC_GetInjectedConversionValue
 .text.ADC_ITConfig
                0x0800067c       0x18 obj\release\spl\src\stm32f4xx_adc.o
                0x0800067c                ADC_ITConfig
 .text.ADC_GetFlagStatus
                0x08000694        0xc obj\release\spl\src\stm32f4xx_adc.o
                0x08000694                ADC_GetFlagStatus
 .text.ADC_ClearFlag
                0x080006a0        0x8 obj\release\spl\src\stm32f4xx_adc.o
                0x080006a0                ADC_ClearFlag
 .text.ADC_GetITStatus
                0x080006a8       0x1c obj\release\spl\src\stm32f4xx_adc.o
                0x080006a8                ADC_GetITStatus
 .text.ADC_ClearITPendingBit
                0x080006c4        0x8 obj\release\spl\src\stm32f4xx_adc.o
                0x080006c4                ADC_ClearITPendingBit
 .text          0x080006cc        0x0 obj\release\spl\src\stm32f4xx_can.o
 .text.CAN_DeInit
                0x080006cc       0x3c obj\release\spl\src\stm32f4xx_can.o
                0x080006cc                CAN_DeInit
 .text.CAN_Init
                0x08000708       0xec obj\release\spl\src\stm32f4xx_can.o
                0x08000708                CAN_Init
 .text.CAN_FilterInit
                0x080007f4       0xf8 obj\release\spl\src\stm32f4xx_can.o
                0x080007f4                CAN_FilterInit
 .text.CAN_StructInit
                0x080008ec       0x28 obj\release\spl\src\stm32f4xx_can.o
                0x080008ec                CAN_StructInit
 .text.CAN_SlaveStartBank
                0x08000914       0x3c obj\release\spl\src\stm32f4xx_can.o
                0x08000914                CAN_SlaveStartBank
 .text.CAN_DBGFreeze
                0x08000950       0x14 obj\release\spl\src\stm32f4xx_can.o
                0x08000950                CAN_DBGFreeze
 .text.CAN_TTComModeCmd
                0x08000964       0x5c obj\release\spl\src\stm32f4xx_can.o
                0x08000964                CAN_TTComModeCmd
 .text.CAN_Transmit
                0x080009c0       0xac obj\release\spl\src\stm32f4xx_can.o
                0x080009c0                CAN_Transmit
 .text.CAN_TransmitStatus
                0x08000a6c       0x50 obj\release\spl\src\stm32f4xx_can.o
                0x08000a6c                CAN_TransmitStatus
 .text.CAN_CancelTransmit
                0x08000abc       0x2c obj\release\spl\src\stm32f4xx_can.o
                0x08000abc                CAN_CancelTransmit
 .text.CAN_Receive
                0x08000ae8       0xa0 obj\release\spl\src\stm32f4xx_can.o
                0x08000ae8                CAN_Receive
 .text.CAN_FIFORelease
                0x08000b88       0x18 obj\release\spl\src\stm32f4xx_can.o
                0x08000b88                CAN_FIFORelease
 .text.CAN_MessagePending
                0x08000ba0       0x18 obj\release\spl\src\stm32f4xx_can.o
                0x08000ba0                CAN_MessagePending
 .text.CAN_OperatingModeRequest
                0x08000bb8       0xb4 obj\release\spl\src\stm32f4xx_can.o
                0x08000bb8                CAN_OperatingModeRequest
 .text.CAN_Sleep
                0x08000c6c       0x20 obj\release\spl\src\stm32f4xx_can.o
                0x08000c6c                CAN_Sleep
 .text.CAN_WakeUp
                0x08000c8c       0x2c obj\release\spl\src\stm32f4xx_can.o
                0x08000c8c                CAN_WakeUp
 .text.CAN_GetLastErrorCode
                0x08000cb8        0x8 obj\release\spl\src\stm32f4xx_can.o
                0x08000cb8                CAN_GetLastErrorCode
 .text.CAN_GetReceiveErrorCounter
                0x08000cc0        0x8 obj\release\spl\src\stm32f4xx_can.o
                0x08000cc0                CAN_GetReceiveErrorCounter
 .text.CAN_GetLSBTransmitErrorCounter
                0x08000cc8        0x8 obj\release\spl\src\stm32f4xx_can.o
                0x08000cc8                CAN_GetLSBTransmitErrorCounter
 .text.CAN_ITConfig
                0x08000cd0       0x14 obj\release\spl\src\stm32f4xx_can.o
                0x08000cd0                CAN_ITConfig
 .text.CAN_GetFlagStatus
                0x08000ce4       0x54 obj\release\spl\src\stm32f4xx_can.o
                0x08000ce4                CAN_GetFlagStatus
 .text.CAN_ClearFlag
                0x08000d38       0x30 obj\release\spl\src\stm32f4xx_can.o
                0x08000d38                CAN_ClearFlag
 .text.CAN_GetITStatus
                0x08000d68       0xe4 obj\release\spl\src\stm32f4xx_can.o
                0x08000d68                CAN_GetITStatus
 .text.CAN_ClearITPendingBit
                0x08000e4c       0x8c obj\release\spl\src\stm32f4xx_can.o
                0x08000e4c                CAN_ClearITPendingBit
 .text          0x08000ed8        0x0 obj\release\spl\src\stm32f4xx_crc.o
 .text.CRC_ResetDR
                0x08000ed8        0xc obj\release\spl\src\stm32f4xx_crc.o
                0x08000ed8                CRC_ResetDR
 .text.CRC_CalcCRC
                0x08000ee4        0xc obj\release\spl\src\stm32f4xx_crc.o
                0x08000ee4                CRC_CalcCRC
 .text.CRC_CalcBlockCRC
                0x08000ef0       0x1c obj\release\spl\src\stm32f4xx_crc.o
                0x08000ef0                CRC_CalcBlockCRC
 .text.CRC_GetCRC
                0x08000f0c        0xc obj\release\spl\src\stm32f4xx_crc.o
                0x08000f0c                CRC_GetCRC
 .text.CRC_SetIDRegister
                0x08000f18        0xc obj\release\spl\src\stm32f4xx_crc.o
                0x08000f18                CRC_SetIDRegister
 .text.CRC_GetIDRegister
                0x08000f24        0xc obj\release\spl\src\stm32f4xx_crc.o
                0x08000f24                CRC_GetIDRegister
 .text          0x08000f30        0x0 obj\release\spl\src\stm32f4xx_cryp.o
 .text.CRYP_DeInit
                0x08000f30       0x18 obj\release\spl\src\stm32f4xx_cryp.o
                0x08000f30                CRYP_DeInit
 .text.CRYP_Init
                0x08000f48       0x58 obj\release\spl\src\stm32f4xx_cryp.o
                0x08000f48                CRYP_Init
 .text.CRYP_StructInit
                0x08000fa0        0xc obj\release\spl\src\stm32f4xx_cryp.o
                0x08000fa0                CRYP_StructInit
 .text.CRYP_KeyInit
                0x08000fac       0x28 obj\release\spl\src\stm32f4xx_cryp.o
                0x08000fac                CRYP_KeyInit
 .text.CRYP_KeyStructInit
                0x08000fd4       0x14 obj\release\spl\src\stm32f4xx_cryp.o
                0x08000fd4                CRYP_KeyStructInit
 .text.CRYP_IVInit
                0x08000fe8       0x18 obj\release\spl\src\stm32f4xx_cryp.o
                0x08000fe8                CRYP_IVInit
 .text.CRYP_IVStructInit
                0x08001000        0xc obj\release\spl\src\stm32f4xx_cryp.o
                0x08001000                CRYP_IVStructInit
 .text.CRYP_FIFOFlush
                0x0800100c       0x10 obj\release\spl\src\stm32f4xx_cryp.o
                0x0800100c                CRYP_FIFOFlush
 .text.CRYP_Cmd
                0x0800101c       0x1c obj\release\spl\src\stm32f4xx_cryp.o
                0x0800101c                CRYP_Cmd
 .text.CRYP_DataIn
                0x08001038        0xc obj\release\spl\src\stm32f4xx_cryp.o
                0x08001038                CRYP_DataIn
 .text.CRYP_DataOut
                0x08001044        0xc obj\release\spl\src\stm32f4xx_cryp.o
                0x08001044                CRYP_DataOut
 .text.CRYP_SaveContext
                0x08001050       0xa0 obj\release\spl\src\stm32f4xx_cryp.o
                0x08001050                CRYP_SaveContext
 .text.CRYP_RestoreContext
                0x080010f0       0x44 obj\release\spl\src\stm32f4xx_cryp.o
                0x080010f0                CRYP_RestoreContext
 .text.CRYP_DMACmd
                0x08001134       0x1c obj\release\spl\src\stm32f4xx_cryp.o
                0x08001134                CRYP_DMACmd
 .text.CRYP_ITConfig
                0x08001150       0x1c obj\release\spl\src\stm32f4xx_cryp.o
                0x08001150                CRYP_ITConfig
 .text.CRYP_GetITStatus
                0x0800116c       0x14 obj\release\spl\src\stm32f4xx_cryp.o
                0x0800116c                CRYP_GetITStatus
 .text.CRYP_GetFlagStatus
                0x08001180       0x18 obj\release\spl\src\stm32f4xx_cryp.o
                0x08001180                CRYP_GetFlagStatus
 .text          0x08001198        0x0 obj\release\spl\src\stm32f4xx_cryp_aes.o
 .text.CRYP_AES_ECB
                0x08001198      0x1f0 obj\release\spl\src\stm32f4xx_cryp_aes.o
                0x08001198                CRYP_AES_ECB
 .text.CRYP_AES_CBC
                0x08001388      0x218 obj\release\spl\src\stm32f4xx_cryp_aes.o
                0x08001388                CRYP_AES_CBC
 .text.CRYP_AES_CTR
                0x080015a0      0x1a8 obj\release\spl\src\stm32f4xx_cryp_aes.o
                0x080015a0                CRYP_AES_CTR
 .text          0x08001748        0x0 obj\release\spl\src\stm32f4xx_cryp_des.o
 .text.CRYP_DES_ECB
                0x08001748       0xc4 obj\release\spl\src\stm32f4xx_cryp_des.o
                0x08001748                CRYP_DES_ECB
 .text.CRYP_DES_CBC
                0x0800180c       0xdc obj\release\spl\src\stm32f4xx_cryp_des.o
                0x0800180c                CRYP_DES_CBC
 .text          0x080018e8        0x0 obj\release\spl\src\stm32f4xx_cryp_tdes.o
 .text.CRYP_TDES_ECB
                0x080018e8       0xe4 obj\release\spl\src\stm32f4xx_cryp_tdes.o
                0x080018e8                CRYP_TDES_ECB
 .text.CRYP_TDES_CBC
                0x080019cc      0x100 obj\release\spl\src\stm32f4xx_cryp_tdes.o
                0x080019cc                CRYP_TDES_CBC
 .text          0x08001acc        0x0 obj\release\spl\src\stm32f4xx_dac.o
 .text.DAC_DeInit
                0x08001acc       0x1c obj\release\spl\src\stm32f4xx_dac.o
                0x08001acc                DAC_DeInit
 .text.DAC_Init
                0x08001ae8       0x30 obj\release\spl\src\stm32f4xx_dac.o
                0x08001ae8                DAC_Init
 .text.DAC_StructInit
                0x08001b18        0xc obj\release\spl\src\stm32f4xx_dac.o
                0x08001b18                DAC_StructInit
 .text.DAC_Cmd  0x08001b24       0x28 obj\release\spl\src\stm32f4xx_dac.o
                0x08001b24                DAC_Cmd
 .text.DAC_SoftwareTriggerCmd
                0x08001b4c       0x2c obj\release\spl\src\stm32f4xx_dac.o
                0x08001b4c                DAC_SoftwareTriggerCmd
 .text.DAC_DualSoftwareTriggerCmd
                0x08001b78       0x1c obj\release\spl\src\stm32f4xx_dac.o
                0x08001b78                DAC_DualSoftwareTriggerCmd
 .text.DAC_WaveGenerationCmd
                0x08001b94       0x20 obj\release\spl\src\stm32f4xx_dac.o
                0x08001b94                DAC_WaveGenerationCmd
 .text.DAC_SetChannel1Data
                0x08001bb4       0x20 obj\release\spl\src\stm32f4xx_dac.o
                0x08001bb4                DAC_SetChannel1Data
 .text.DAC_SetChannel2Data
                0x08001bd4       0x20 obj\release\spl\src\stm32f4xx_dac.o
                0x08001bd4                DAC_SetChannel2Data
 .text.DAC_SetDualChannelData
                0x08001bf4       0x18 obj\release\spl\src\stm32f4xx_dac.o
                0x08001bf4                DAC_SetDualChannelData
 .text.DAC_GetDataOutputValue
                0x08001c0c       0x24 obj\release\spl\src\stm32f4xx_dac.o
                0x08001c0c                DAC_GetDataOutputValue
 .text.DAC_DMACmd
                0x08001c30       0x2c obj\release\spl\src\stm32f4xx_dac.o
                0x08001c30                DAC_DMACmd
 .text.DAC_ITConfig
                0x08001c5c       0x20 obj\release\spl\src\stm32f4xx_dac.o
                0x08001c5c                DAC_ITConfig
 .text.DAC_GetFlagStatus
                0x08001c7c       0x14 obj\release\spl\src\stm32f4xx_dac.o
                0x08001c7c                DAC_GetFlagStatus
 .text.DAC_ClearFlag
                0x08001c90        0xc obj\release\spl\src\stm32f4xx_dac.o
                0x08001c90                DAC_ClearFlag
 .text.DAC_GetITStatus
                0x08001c9c       0x1c obj\release\spl\src\stm32f4xx_dac.o
                0x08001c9c                DAC_GetITStatus
 .text.DAC_ClearITPendingBit
                0x08001cb8        0xc obj\release\spl\src\stm32f4xx_dac.o
                0x08001cb8                DAC_ClearITPendingBit
 .text          0x08001cc4        0x0 obj\release\spl\src\stm32f4xx_dbgmcu.o
 .text.DBGMCU_GetREVID
                0x08001cc4        0xc obj\release\spl\src\stm32f4xx_dbgmcu.o
                0x08001cc4                DBGMCU_GetREVID
 .text.DBGMCU_GetDEVID
                0x08001cd0       0x10 obj\release\spl\src\stm32f4xx_dbgmcu.o
                0x08001cd0                DBGMCU_GetDEVID
 .text.DBGMCU_Config
                0x08001ce0       0x1c obj\release\spl\src\stm32f4xx_dbgmcu.o
                0x08001ce0                DBGMCU_Config
 .text.DBGMCU_APB1PeriphConfig
                0x08001cfc       0x1c obj\release\spl\src\stm32f4xx_dbgmcu.o
                0x08001cfc                DBGMCU_APB1PeriphConfig
 .text.DBGMCU_APB2PeriphConfig
                0x08001d18       0x1c obj\release\spl\src\stm32f4xx_dbgmcu.o
                0x08001d18                DBGMCU_APB2PeriphConfig
 .text          0x08001d34        0x0 obj\release\spl\src\stm32f4xx_dcmi.o
 .text.DCMI_DeInit
                0x08001d34       0x1c obj\release\spl\src\stm32f4xx_dcmi.o
                0x08001d34                DCMI_DeInit
 .text.DCMI_Init
                0x08001d50       0x44 obj\release\spl\src\stm32f4xx_dcmi.o
                0x08001d50                DCMI_Init
 .text.DCMI_StructInit
                0x08001d94       0x14 obj\release\spl\src\stm32f4xx_dcmi.o
                0x08001d94                DCMI_StructInit
 .text.DCMI_CROPConfig
                0x08001da8       0x1c obj\release\spl\src\stm32f4xx_dcmi.o
                0x08001da8                DCMI_CROPConfig
 .text.DCMI_CROPCmd
                0x08001dc4       0x1c obj\release\spl\src\stm32f4xx_dcmi.o
                0x08001dc4                DCMI_CROPCmd
 .text.DCMI_SetEmbeddedSynchroCodes
                0x08001de0        0xc obj\release\spl\src\stm32f4xx_dcmi.o
                0x08001de0                DCMI_SetEmbeddedSynchroCodes
 .text.DCMI_JPEGCmd
                0x08001dec       0x1c obj\release\spl\src\stm32f4xx_dcmi.o
                0x08001dec                DCMI_JPEGCmd
 .text.DCMI_Cmd
                0x08001e08       0x1c obj\release\spl\src\stm32f4xx_dcmi.o
                0x08001e08                DCMI_Cmd
 .text.DCMI_CaptureCmd
                0x08001e24       0x1c obj\release\spl\src\stm32f4xx_dcmi.o
                0x08001e24                DCMI_CaptureCmd
 .text.DCMI_ReadData
                0x08001e40        0xc obj\release\spl\src\stm32f4xx_dcmi.o
                0x08001e40                DCMI_ReadData
 .text.DCMI_ITConfig
                0x08001e4c       0x1c obj\release\spl\src\stm32f4xx_dcmi.o
                0x08001e4c                DCMI_ITConfig
 .text.DCMI_GetFlagStatus
                0x08001e68       0x24 obj\release\spl\src\stm32f4xx_dcmi.o
                0x08001e68                DCMI_GetFlagStatus
 .text.DCMI_ClearFlag
                0x08001e8c        0xc obj\release\spl\src\stm32f4xx_dcmi.o
                0x08001e8c                DCMI_ClearFlag
 .text.DCMI_GetITStatus
                0x08001e98       0x14 obj\release\spl\src\stm32f4xx_dcmi.o
                0x08001e98                DCMI_GetITStatus
 .text.DCMI_ClearITPendingBit
                0x08001eac        0xc obj\release\spl\src\stm32f4xx_dcmi.o
                0x08001eac                DCMI_ClearITPendingBit
 .text          0x08001eb8        0x0 obj\release\spl\src\stm32f4xx_dma.o
 .text.DMA_DeInit
                0x08001eb8      0x130 obj\release\spl\src\stm32f4xx_dma.o
                0x08001eb8                DMA_DeInit
 .text.DMA_Init
                0x08001fe8       0x58 obj\release\spl\src\stm32f4xx_dma.o
                0x08001fe8                DMA_Init
 .text.DMA_StructInit
                0x08002040       0x24 obj\release\spl\src\stm32f4xx_dma.o
                0x08002040                DMA_StructInit
 .text.DMA_Cmd  0x08002064       0x14 obj\release\spl\src\stm32f4xx_dma.o
                0x08002064                DMA_Cmd
 .text.DMA_PeriphIncOffsetSizeConfig
                0x08002078       0x14 obj\release\spl\src\stm32f4xx_dma.o
                0x08002078                DMA_PeriphIncOffsetSizeConfig
 .text.DMA_FlowControllerConfig
                0x0800208c       0x14 obj\release\spl\src\stm32f4xx_dma.o
                0x0800208c                DMA_FlowControllerConfig
 .text.DMA_SetCurrDataCounter
                0x080020a0        0x4 obj\release\spl\src\stm32f4xx_dma.o
                0x080020a0                DMA_SetCurrDataCounter
 .text.DMA_GetCurrDataCounter
                0x080020a4        0x8 obj\release\spl\src\stm32f4xx_dma.o
                0x080020a4                DMA_GetCurrDataCounter
 .text.DMA_DoubleBufferModeConfig
                0x080020ac       0x18 obj\release\spl\src\stm32f4xx_dma.o
                0x080020ac                DMA_DoubleBufferModeConfig
 .text.DMA_DoubleBufferModeCmd
                0x080020c4       0x14 obj\release\spl\src\stm32f4xx_dma.o
                0x080020c4                DMA_DoubleBufferModeCmd
 .text.DMA_MemoryTargetConfig
                0x080020d8        0xc obj\release\spl\src\stm32f4xx_dma.o
                0x080020d8                DMA_MemoryTargetConfig
 .text.DMA_GetCurrentMemoryTarget
                0x080020e4        0x8 obj\release\spl\src\stm32f4xx_dma.o
                0x080020e4                DMA_GetCurrentMemoryTarget
 .text.DMA_GetCmdStatus
                0x080020ec        0x8 obj\release\spl\src\stm32f4xx_dma.o
                0x080020ec                DMA_GetCmdStatus
 .text.DMA_GetFIFOStatus
                0x080020f4        0x8 obj\release\spl\src\stm32f4xx_dma.o
                0x080020f4                DMA_GetFIFOStatus
 .text.DMA_GetFlagStatus
                0x080020fc       0x3c obj\release\spl\src\stm32f4xx_dma.o
                0x080020fc                DMA_GetFlagStatus
 .text.DMA_ClearFlag
                0x08002138       0x34 obj\release\spl\src\stm32f4xx_dma.o
                0x08002138                DMA_ClearFlag
 .text.DMA_ITConfig
                0x0800216c       0x40 obj\release\spl\src\stm32f4xx_dma.o
                0x0800216c                DMA_ITConfig
 .text.DMA_GetITStatus
                0x080021ac       0x50 obj\release\spl\src\stm32f4xx_dma.o
                0x080021ac                DMA_GetITStatus
 .text.DMA_ClearITPendingBit
                0x080021fc       0x34 obj\release\spl\src\stm32f4xx_dma.o
                0x080021fc                DMA_ClearITPendingBit
 .text          0x08002230        0x0 obj\release\spl\src\stm32f4xx_exti.o
 .text.EXTI_DeInit
                0x08002230       0x1c obj\release\spl\src\stm32f4xx_exti.o
                0x08002230                EXTI_DeInit
 .text.EXTI_Init
                0x0800224c       0x90 obj\release\spl\src\stm32f4xx_exti.o
                0x0800224c                EXTI_Init
 .text.EXTI_StructInit
                0x080022dc       0x10 obj\release\spl\src\stm32f4xx_exti.o
                0x080022dc                EXTI_StructInit
 .text.EXTI_GenerateSWInterrupt
                0x080022ec       0x10 obj\release\spl\src\stm32f4xx_exti.o
                0x080022ec                EXTI_GenerateSWInterrupt
 .text.EXTI_GetFlagStatus
                0x080022fc       0x14 obj\release\spl\src\stm32f4xx_exti.o
                0x080022fc                EXTI_GetFlagStatus
 .text.EXTI_ClearFlag
                0x08002310        0xc obj\release\spl\src\stm32f4xx_exti.o
                0x08002310                EXTI_ClearFlag
 .text.EXTI_GetITStatus
                0x0800231c       0x1c obj\release\spl\src\stm32f4xx_exti.o
                0x0800231c                EXTI_GetITStatus
 .text.EXTI_ClearITPendingBit
                0x08002338        0xc obj\release\spl\src\stm32f4xx_exti.o
                0x08002338                EXTI_ClearITPendingBit
 .text          0x08002344        0x0 obj\release\spl\src\stm32f4xx_flash.o
 .text.FLASH_SetLatency
                0x08002344        0xc obj\release\spl\src\stm32f4xx_flash.o
                0x08002344                FLASH_SetLatency
 .text.FLASH_PrefetchBufferCmd
                0x08002350       0x1c obj\release\spl\src\stm32f4xx_flash.o
                0x08002350                FLASH_PrefetchBufferCmd
 .text.FLASH_InstructionCacheCmd
                0x0800236c       0x1c obj\release\spl\src\stm32f4xx_flash.o
                0x0800236c                FLASH_InstructionCacheCmd
 .text.FLASH_DataCacheCmd
                0x08002388       0x1c obj\release\spl\src\stm32f4xx_flash.o
                0x08002388                FLASH_DataCacheCmd
 .text.FLASH_InstructionCacheReset
                0x080023a4       0x10 obj\release\spl\src\stm32f4xx_flash.o
                0x080023a4                FLASH_InstructionCacheReset
 .text.FLASH_DataCacheReset
                0x080023b4       0x10 obj\release\spl\src\stm32f4xx_flash.o
                0x080023b4                FLASH_DataCacheReset
 .text.FLASH_Unlock
                0x080023c4       0x20 obj\release\spl\src\stm32f4xx_flash.o
                0x080023c4                FLASH_Unlock
 .text.FLASH_Lock
                0x080023e4       0x10 obj\release\spl\src\stm32f4xx_flash.o
                0x080023e4                FLASH_Lock
 .text.FLASH_EraseSector
                0x080023f4      0x188 obj\release\spl\src\stm32f4xx_flash.o
                0x080023f4                FLASH_EraseSector
 .text.FLASH_EraseAllSectors
                0x0800257c      0x16c obj\release\spl\src\stm32f4xx_flash.o
                0x0800257c                FLASH_EraseAllSectors
 .text.FLASH_ProgramDoubleWord
                0x080026e8      0x15c obj\release\spl\src\stm32f4xx_flash.o
                0x080026e8                FLASH_ProgramDoubleWord
 .text.FLASH_ProgramWord
                0x08002844      0x15c obj\release\spl\src\stm32f4xx_flash.o
                0x08002844                FLASH_ProgramWord
 .text.FLASH_ProgramHalfWord
                0x080029a0      0x15c obj\release\spl\src\stm32f4xx_flash.o
                0x080029a0                FLASH_ProgramHalfWord
 .text.FLASH_ProgramByte
                0x08002afc      0x158 obj\release\spl\src\stm32f4xx_flash.o
                0x08002afc                FLASH_ProgramByte
 .text.FLASH_OB_Unlock
                0x08002c54       0x20 obj\release\spl\src\stm32f4xx_flash.o
                0x08002c54                FLASH_OB_Unlock
 .text.FLASH_OB_Lock
                0x08002c74       0x10 obj\release\spl\src\stm32f4xx_flash.o
                0x08002c74                FLASH_OB_Lock
 .text.FLASH_OB_WRPConfig
                0x08002c84       0xb8 obj\release\spl\src\stm32f4xx_flash.o
                0x08002c84                FLASH_OB_WRPConfig
 .text.FLASH_OB_RDPConfig
                0x08002d3c       0xa0 obj\release\spl\src\stm32f4xx_flash.o
                0x08002d3c                FLASH_OB_RDPConfig
 .text.FLASH_OB_UserConfig
                0x08002ddc       0xb4 obj\release\spl\src\stm32f4xx_flash.o
                0x08002ddc                FLASH_OB_UserConfig
 .text.FLASH_OB_BORConfig
                0x08002e90       0x18 obj\release\spl\src\stm32f4xx_flash.o
                0x08002e90                FLASH_OB_BORConfig
 .text.FLASH_OB_Launch
                0x08002ea8       0xa4 obj\release\spl\src\stm32f4xx_flash.o
                0x08002ea8                FLASH_OB_Launch
 .text.FLASH_OB_GetUser
                0x08002f4c       0x10 obj\release\spl\src\stm32f4xx_flash.o
                0x08002f4c                FLASH_OB_GetUser
 .text.FLASH_OB_GetWRP
                0x08002f5c        0xc obj\release\spl\src\stm32f4xx_flash.o
                0x08002f5c                FLASH_OB_GetWRP
 .text.FLASH_OB_GetRDP
                0x08002f68       0x10 obj\release\spl\src\stm32f4xx_flash.o
                0x08002f68                FLASH_OB_GetRDP
 .text.FLASH_OB_GetBOR
                0x08002f78       0x10 obj\release\spl\src\stm32f4xx_flash.o
                0x08002f78                FLASH_OB_GetBOR
 .text.FLASH_ITConfig
                0x08002f88       0x1c obj\release\spl\src\stm32f4xx_flash.o
                0x08002f88                FLASH_ITConfig
 .text.FLASH_GetFlagStatus
                0x08002fa4       0x14 obj\release\spl\src\stm32f4xx_flash.o
                0x08002fa4                FLASH_GetFlagStatus
 .text.FLASH_ClearFlag
                0x08002fb8        0xc obj\release\spl\src\stm32f4xx_flash.o
                0x08002fb8                FLASH_ClearFlag
 .text.FLASH_GetStatus
                0x08002fc4       0x34 obj\release\spl\src\stm32f4xx_flash.o
                0x08002fc4                FLASH_GetStatus
 .text.FLASH_WaitForLastOperation
                0x08002ff8       0x98 obj\release\spl\src\stm32f4xx_flash.o
                0x08002ff8                FLASH_WaitForLastOperation
 .text          0x08003090        0x0 obj\release\spl\src\stm32f4xx_fsmc.o
 .text.FSMC_NORSRAMDeInit
                0x08003090       0x28 obj\release\spl\src\stm32f4xx_fsmc.o
                0x08003090                FSMC_NORSRAMDeInit
 .text.FSMC_NORSRAMInit
                0x080030b8       0xcc obj\release\spl\src\stm32f4xx_fsmc.o
                0x080030b8                FSMC_NORSRAMInit
 .text.FSMC_NORSRAMStructInit
                0x08003184       0x68 obj\release\spl\src\stm32f4xx_fsmc.o
                0x08003184                FSMC_NORSRAMStructInit
 .text.FSMC_NORSRAMCmd
                0x080031ec       0x20 obj\release\spl\src\stm32f4xx_fsmc.o
                0x080031ec                FSMC_NORSRAMCmd
 .text.FSMC_NANDDeInit
                0x0800320c       0x24 obj\release\spl\src\stm32f4xx_fsmc.o
                0x0800320c                FSMC_NANDDeInit
 .text.FSMC_NANDInit
                0x08003230       0x7c obj\release\spl\src\stm32f4xx_fsmc.o
                0x08003230                FSMC_NANDInit
 .text.FSMC_NANDStructInit
                0x080032ac       0x38 obj\release\spl\src\stm32f4xx_fsmc.o
                0x080032ac                FSMC_NANDStructInit
 .text.FSMC_NANDCmd
                0x080032e4       0x34 obj\release\spl\src\stm32f4xx_fsmc.o
                0x080032e4                FSMC_NANDCmd
 .text.FSMC_NANDECCCmd
                0x08003318       0x34 obj\release\spl\src\stm32f4xx_fsmc.o
                0x08003318                FSMC_NANDECCCmd
 .text.FSMC_GetECC
                0x0800334c       0x14 obj\release\spl\src\stm32f4xx_fsmc.o
                0x0800334c                FSMC_GetECC
 .text.FSMC_PCCARDDeInit
                0x08003360       0x1c obj\release\spl\src\stm32f4xx_fsmc.o
                0x08003360                FSMC_PCCARDDeInit
 .text.FSMC_PCCARDInit
                0x0800337c       0x68 obj\release\spl\src\stm32f4xx_fsmc.o
                0x0800337c                FSMC_PCCARDInit
 .text.FSMC_PCCARDStructInit
                0x080033e4       0x3c obj\release\spl\src\stm32f4xx_fsmc.o
                0x080033e4                FSMC_PCCARDStructInit
 .text.FSMC_PCCARDCmd
                0x08003420       0x20 obj\release\spl\src\stm32f4xx_fsmc.o
                0x08003420                FSMC_PCCARDCmd
 .text.FSMC_ITConfig
                0x08003440       0x54 obj\release\spl\src\stm32f4xx_fsmc.o
                0x08003440                FSMC_ITConfig
 .text.FSMC_GetFlagStatus
                0x08003494       0x2c obj\release\spl\src\stm32f4xx_fsmc.o
                0x08003494                FSMC_GetFlagStatus
 .text.FSMC_ClearFlag
                0x080034c0       0x30 obj\release\spl\src\stm32f4xx_fsmc.o
                0x080034c0                FSMC_ClearFlag
 .text.FSMC_GetITStatus
                0x080034f0       0x34 obj\release\spl\src\stm32f4xx_fsmc.o
                0x080034f0                FSMC_GetITStatus
 .text.FSMC_ClearITPendingBit
                0x08003524       0x30 obj\release\spl\src\stm32f4xx_fsmc.o
                0x08003524                FSMC_ClearITPendingBit
 .text          0x08003554        0x0 obj\release\spl\src\stm32f4xx_gpio.o
 .text.GPIO_DeInit
                0x08003554      0x118 obj\release\spl\src\stm32f4xx_gpio.o
                0x08003554                GPIO_DeInit
 .text.GPIO_Init
                0x0800366c       0xa8 obj\release\spl\src\stm32f4xx_gpio.o
                0x0800366c                GPIO_Init
 .text.GPIO_StructInit
                0x08003714       0x14 obj\release\spl\src\stm32f4xx_gpio.o
                0x08003714                GPIO_StructInit
 .text.GPIO_PinLockConfig
                0x08003728       0x24 obj\release\spl\src\stm32f4xx_gpio.o
                0x08003728                GPIO_PinLockConfig
 .text.GPIO_ReadInputDataBit
                0x0800374c        0xc obj\release\spl\src\stm32f4xx_gpio.o
                0x0800374c                GPIO_ReadInputDataBit
 .text.GPIO_ReadInputData
                0x08003758        0x8 obj\release\spl\src\stm32f4xx_gpio.o
                0x08003758                GPIO_ReadInputData
 .text.GPIO_ReadOutputDataBit
                0x08003760        0xc obj\release\spl\src\stm32f4xx_gpio.o
                0x08003760                GPIO_ReadOutputDataBit
 .text.GPIO_ReadOutputData
                0x0800376c        0x8 obj\release\spl\src\stm32f4xx_gpio.o
                0x0800376c                GPIO_ReadOutputData
 .text.GPIO_SetBits
                0x08003774        0x4 obj\release\spl\src\stm32f4xx_gpio.o
                0x08003774                GPIO_SetBits
 .text.GPIO_ResetBits
                0x08003778        0x4 obj\release\spl\src\stm32f4xx_gpio.o
                0x08003778                GPIO_ResetBits
 .text.GPIO_WriteBit
                0x0800377c        0xc obj\release\spl\src\stm32f4xx_gpio.o
                0x0800377c                GPIO_WriteBit
 .text.GPIO_Write
                0x08003788        0x4 obj\release\spl\src\stm32f4xx_gpio.o
                0x08003788                GPIO_Write
 .text.GPIO_ToggleBits
                0x0800378c        0x8 obj\release\spl\src\stm32f4xx_gpio.o
                0x0800378c                GPIO_ToggleBits
 .text.GPIO_PinAFConfig
                0x08003794       0x2c obj\release\spl\src\stm32f4xx_gpio.o
                0x08003794                GPIO_PinAFConfig
 .text          0x080037c0        0x0 obj\release\spl\src\stm32f4xx_hash.o
 .text.HASH_DeInit
                0x080037c0       0x18 obj\release\spl\src\stm32f4xx_hash.o
                0x080037c0                HASH_DeInit
 .text.HASH_Init
                0x080037d8       0x44 obj\release\spl\src\stm32f4xx_hash.o
                0x080037d8                HASH_Init
 .text.HASH_StructInit
                0x0800381c        0xc obj\release\spl\src\stm32f4xx_hash.o
                0x0800381c                HASH_StructInit
 .text.HASH_Reset
                0x08003828       0x10 obj\release\spl\src\stm32f4xx_hash.o
                0x08003828                HASH_Reset
 .text.HASH_SetLastWordValidBitsNbr
                0x08003838       0x18 obj\release\spl\src\stm32f4xx_hash.o
                0x08003838                HASH_SetLastWordValidBitsNbr
 .text.HASH_DataIn
                0x08003850        0xc obj\release\spl\src\stm32f4xx_hash.o
                0x08003850                HASH_DataIn
 .text.HASH_GetInFIFOWordsNbr
                0x0800385c       0x10 obj\release\spl\src\stm32f4xx_hash.o
                0x0800385c                HASH_GetInFIFOWordsNbr
 .text.HASH_GetDigest
                0x0800386c       0x1c obj\release\spl\src\stm32f4xx_hash.o
                0x0800386c                HASH_GetDigest
 .text.HASH_StartDigest
                0x08003888       0x10 obj\release\spl\src\stm32f4xx_hash.o
                0x08003888                HASH_StartDigest
 .text.HASH_SaveContext
                0x08003898       0x2c obj\release\spl\src\stm32f4xx_hash.o
                0x08003898                HASH_SaveContext
 .text.HASH_RestoreContext
                0x080038c4       0x3c obj\release\spl\src\stm32f4xx_hash.o
                0x080038c4                HASH_RestoreContext
 .text.HASH_DMACmd
                0x08003900       0x1c obj\release\spl\src\stm32f4xx_hash.o
                0x08003900                HASH_DMACmd
 .text.HASH_ITConfig
                0x0800391c       0x1c obj\release\spl\src\stm32f4xx_hash.o
                0x0800391c                HASH_ITConfig
 .text.HASH_GetFlagStatus
                0x08003938       0x18 obj\release\spl\src\stm32f4xx_hash.o
                0x08003938                HASH_GetFlagStatus
 .text.HASH_ClearFlag
                0x08003950        0xc obj\release\spl\src\stm32f4xx_hash.o
                0x08003950                HASH_ClearFlag
 .text.HASH_GetITStatus
                0x0800395c       0x18 obj\release\spl\src\stm32f4xx_hash.o
                0x0800395c                HASH_GetITStatus
 .text.HASH_ClearITPendingBit
                0x08003974       0x10 obj\release\spl\src\stm32f4xx_hash.o
                0x08003974                HASH_ClearITPendingBit
 .text          0x08003984        0x0 obj\release\spl\src\stm32f4xx_hash_md5.o
 .text.HASH_MD5
                0x08003984       0x8c obj\release\spl\src\stm32f4xx_hash_md5.o
                0x08003984                HASH_MD5
 .text.HMAC_MD5
                0x08003a10      0x148 obj\release\spl\src\stm32f4xx_hash_md5.o
                0x08003a10                HMAC_MD5
 .text          0x08003b58        0x0 obj\release\spl\src\stm32f4xx_hash_sha1.o
 .text.HASH_SHA1
                0x08003b58       0x94 obj\release\spl\src\stm32f4xx_hash_sha1.o
                0x08003b58                HASH_SHA1
 .text.HMAC_SHA1
                0x08003bec      0x14c obj\release\spl\src\stm32f4xx_hash_sha1.o
                0x08003bec                HMAC_SHA1
 .text          0x08003d38        0x0 obj\release\spl\src\stm32f4xx_i2c.o
 .text.I2C_DeInit
                0x08003d38       0x6c obj\release\spl\src\stm32f4xx_i2c.o
                0x08003d38                I2C_DeInit
 .text.I2C_Init
                0x08003da4       0xe4 obj\release\spl\src\stm32f4xx_i2c.o
                0x08003da4                I2C_Init
 .text.I2C_StructInit
                0x08003e88       0x24 obj\release\spl\src\stm32f4xx_i2c.o
                0x08003e88                I2C_StructInit
 .text.I2C_Cmd  0x08003eac       0x1c obj\release\spl\src\stm32f4xx_i2c.o
                0x08003eac                I2C_Cmd
 .text.I2C_GenerateSTART
                0x08003ec8       0x1c obj\release\spl\src\stm32f4xx_i2c.o
                0x08003ec8                I2C_GenerateSTART
 .text.I2C_GenerateSTOP
                0x08003ee4       0x1c obj\release\spl\src\stm32f4xx_i2c.o
                0x08003ee4                I2C_GenerateSTOP
 .text.I2C_Send7bitAddress
                0x08003f00       0x18 obj\release\spl\src\stm32f4xx_i2c.o
                0x08003f00                I2C_Send7bitAddress
 .text.I2C_AcknowledgeConfig
                0x08003f18       0x1c obj\release\spl\src\stm32f4xx_i2c.o
                0x08003f18                I2C_AcknowledgeConfig
 .text.I2C_OwnAddress2Config
                0x08003f34       0x14 obj\release\spl\src\stm32f4xx_i2c.o
                0x08003f34                I2C_OwnAddress2Config
 .text.I2C_DualAddressCmd
                0x08003f48       0x1c obj\release\spl\src\stm32f4xx_i2c.o
                0x08003f48                I2C_DualAddressCmd
 .text.I2C_GeneralCallCmd
                0x08003f64       0x1c obj\release\spl\src\stm32f4xx_i2c.o
                0x08003f64                I2C_GeneralCallCmd
 .text.I2C_SoftwareResetCmd
                0x08003f80       0x1c obj\release\spl\src\stm32f4xx_i2c.o
                0x08003f80                I2C_SoftwareResetCmd
 .text.I2C_StretchClockCmd
                0x08003f9c       0x1c obj\release\spl\src\stm32f4xx_i2c.o
                0x08003f9c                I2C_StretchClockCmd
 .text.I2C_FastModeDutyCycleConfig
                0x08003fb8       0x20 obj\release\spl\src\stm32f4xx_i2c.o
                0x08003fb8                I2C_FastModeDutyCycleConfig
 .text.I2C_NACKPositionConfig
                0x08003fd8       0x20 obj\release\spl\src\stm32f4xx_i2c.o
                0x08003fd8                I2C_NACKPositionConfig
 .text.I2C_SMBusAlertConfig
                0x08003ff8       0x20 obj\release\spl\src\stm32f4xx_i2c.o
                0x08003ff8                I2C_SMBusAlertConfig
 .text.I2C_ARPCmd
                0x08004018       0x1c obj\release\spl\src\stm32f4xx_i2c.o
                0x08004018                I2C_ARPCmd
 .text.I2C_SendData
                0x08004034        0x4 obj\release\spl\src\stm32f4xx_i2c.o
                0x08004034                I2C_SendData
 .text.I2C_ReceiveData
                0x08004038        0x8 obj\release\spl\src\stm32f4xx_i2c.o
                0x08004038                I2C_ReceiveData
 .text.I2C_TransmitPEC
                0x08004040       0x1c obj\release\spl\src\stm32f4xx_i2c.o
                0x08004040                I2C_TransmitPEC
 .text.I2C_PECPositionConfig
                0x0800405c       0x20 obj\release\spl\src\stm32f4xx_i2c.o
                0x0800405c                I2C_PECPositionConfig
 .text.I2C_CalculatePEC
                0x0800407c       0x1c obj\release\spl\src\stm32f4xx_i2c.o
                0x0800407c                I2C_CalculatePEC
 .text.I2C_GetPEC
                0x08004098        0x8 obj\release\spl\src\stm32f4xx_i2c.o
                0x08004098                I2C_GetPEC
 .text.I2C_DMACmd
                0x080040a0       0x1c obj\release\spl\src\stm32f4xx_i2c.o
                0x080040a0                I2C_DMACmd
 .text.I2C_DMALastTransferCmd
                0x080040bc       0x1c obj\release\spl\src\stm32f4xx_i2c.o
                0x080040bc                I2C_DMALastTransferCmd
 .text.I2C_ReadRegister
                0x080040d8       0x18 obj\release\spl\src\stm32f4xx_i2c.o
                0x080040d8                I2C_ReadRegister
 .text.I2C_ITConfig
                0x080040f0       0x14 obj\release\spl\src\stm32f4xx_i2c.o
                0x080040f0                I2C_ITConfig
 .text.I2C_CheckEvent
                0x08004104       0x1c obj\release\spl\src\stm32f4xx_i2c.o
                0x08004104                I2C_CheckEvent
 .text.I2C_GetLastEvent
                0x08004120       0x10 obj\release\spl\src\stm32f4xx_i2c.o
                0x08004120                I2C_GetLastEvent
 .text.I2C_GetFlagStatus
                0x08004130       0x38 obj\release\spl\src\stm32f4xx_i2c.o
                0x08004130                I2C_GetFlagStatus
 .text.I2C_ClearFlag
                0x08004168        0x8 obj\release\spl\src\stm32f4xx_i2c.o
                0x08004168                I2C_ClearFlag
 .text.I2C_GetITStatus
                0x08004170       0x1c obj\release\spl\src\stm32f4xx_i2c.o
                0x08004170                I2C_GetITStatus
 .text.I2C_ClearITPendingBit
                0x0800418c        0x8 obj\release\spl\src\stm32f4xx_i2c.o
                0x0800418c                I2C_ClearITPendingBit
 .text          0x08004194        0x0 obj\release\spl\src\stm32f4xx_iwdg.o
 .text.IWDG_WriteAccessCmd
                0x08004194        0xc obj\release\spl\src\stm32f4xx_iwdg.o
                0x08004194                IWDG_WriteAccessCmd
 .text.IWDG_SetPrescaler
                0x080041a0        0xc obj\release\spl\src\stm32f4xx_iwdg.o
                0x080041a0                IWDG_SetPrescaler
 .text.IWDG_SetReload
                0x080041ac        0xc obj\release\spl\src\stm32f4xx_iwdg.o
                0x080041ac                IWDG_SetReload
 .text.IWDG_ReloadCounter
                0x080041b8       0x10 obj\release\spl\src\stm32f4xx_iwdg.o
                0x080041b8                IWDG_ReloadCounter
 .text.IWDG_Enable
                0x080041c8       0x10 obj\release\spl\src\stm32f4xx_iwdg.o
                0x080041c8                IWDG_Enable
 .text.IWDG_GetFlagStatus
                0x080041d8       0x14 obj\release\spl\src\stm32f4xx_iwdg.o
                0x080041d8                IWDG_GetFlagStatus
 .text          0x080041ec        0x0 obj\release\spl\src\stm32f4xx_pwr.o
 .text.PWR_DeInit
                0x080041ec       0x1c obj\release\spl\src\stm32f4xx_pwr.o
                0x080041ec                PWR_DeInit
 .text.PWR_BackupAccessCmd
                0x08004208        0xc obj\release\spl\src\stm32f4xx_pwr.o
                0x08004208                PWR_BackupAccessCmd
 .text.PWR_PVDLevelConfig
                0x08004214       0x14 obj\release\spl\src\stm32f4xx_pwr.o
                0x08004214                PWR_PVDLevelConfig
 .text.PWR_PVDCmd
                0x08004228        0xc obj\release\spl\src\stm32f4xx_pwr.o
                0x08004228                PWR_PVDCmd
 .text.PWR_WakeUpPinCmd
                0x08004234        0xc obj\release\spl\src\stm32f4xx_pwr.o
                0x08004234                PWR_WakeUpPinCmd
 .text.PWR_BackupRegulatorCmd
                0x08004240        0xc obj\release\spl\src\stm32f4xx_pwr.o
                0x08004240                PWR_BackupRegulatorCmd
 .text.PWR_MainRegulatorModeConfig
                0x0800424c       0x1c obj\release\spl\src\stm32f4xx_pwr.o
                0x0800424c                PWR_MainRegulatorModeConfig
 .text.PWR_FlashPowerDownCmd
                0x08004268        0xc obj\release\spl\src\stm32f4xx_pwr.o
                0x08004268                PWR_FlashPowerDownCmd
 .text.PWR_EnterSTOPMode
                0x08004274       0x3c obj\release\spl\src\stm32f4xx_pwr.o
                0x08004274                PWR_EnterSTOPMode
 .text.PWR_EnterSTANDBYMode
                0x080042b0       0x28 obj\release\spl\src\stm32f4xx_pwr.o
                0x080042b0                PWR_EnterSTANDBYMode
 .text.PWR_GetFlagStatus
                0x080042d8       0x14 obj\release\spl\src\stm32f4xx_pwr.o
                0x080042d8                PWR_GetFlagStatus
 .text.PWR_ClearFlag
                0x080042ec       0x10 obj\release\spl\src\stm32f4xx_pwr.o
                0x080042ec                PWR_ClearFlag
 .text          0x080042fc        0x0 obj\release\spl\src\stm32f4xx_rcc.o
 .text.RCC_DeInit
                0x080042fc       0x34 obj\release\spl\src\stm32f4xx_rcc.o
                0x080042fc                RCC_DeInit
 .text.RCC_HSEConfig
                0x08004330       0x10 obj\release\spl\src\stm32f4xx_rcc.o
                0x08004330                RCC_HSEConfig
 .text.RCC_WaitForHSEStartUp
                0x08004340       0x34 obj\release\spl\src\stm32f4xx_rcc.o
                0x08004340                RCC_WaitForHSEStartUp
 .text.RCC_AdjustHSICalibrationValue
                0x08004374       0x14 obj\release\spl\src\stm32f4xx_rcc.o
                0x08004374                RCC_AdjustHSICalibrationValue
 .text.RCC_HSICmd
                0x08004388        0xc obj\release\spl\src\stm32f4xx_rcc.o
                0x08004388                RCC_HSICmd
 .text.RCC_LSEConfig
                0x08004394       0x20 obj\release\spl\src\stm32f4xx_rcc.o
                0x08004394                RCC_LSEConfig
 .text.RCC_LSICmd
                0x080043b4        0xc obj\release\spl\src\stm32f4xx_rcc.o
                0x080043b4                RCC_LSICmd
 .text.RCC_PLLConfig
                0x080043c0       0x24 obj\release\spl\src\stm32f4xx_rcc.o
                0x080043c0                RCC_PLLConfig
 .text.RCC_PLLCmd
                0x080043e4        0xc obj\release\spl\src\stm32f4xx_rcc.o
                0x080043e4                RCC_PLLCmd
 .text.RCC_PLLI2SConfig
                0x080043f0       0x14 obj\release\spl\src\stm32f4xx_rcc.o
                0x080043f0                RCC_PLLI2SConfig
 .text.RCC_PLLI2SCmd
                0x08004404        0xc obj\release\spl\src\stm32f4xx_rcc.o
                0x08004404                RCC_PLLI2SCmd
 .text.RCC_ClockSecuritySystemCmd
                0x08004410        0xc obj\release\spl\src\stm32f4xx_rcc.o
                0x08004410                RCC_ClockSecuritySystemCmd
 .text.RCC_MCO1Config
                0x0800441c       0x14 obj\release\spl\src\stm32f4xx_rcc.o
                0x0800441c                RCC_MCO1Config
 .text.RCC_MCO2Config
                0x08004430       0x14 obj\release\spl\src\stm32f4xx_rcc.o
                0x08004430                RCC_MCO2Config
 .text.RCC_SYSCLKConfig
                0x08004444       0x14 obj\release\spl\src\stm32f4xx_rcc.o
                0x08004444                RCC_SYSCLKConfig
 .text.RCC_GetSYSCLKSource
                0x08004458       0x10 obj\release\spl\src\stm32f4xx_rcc.o
                0x08004458                RCC_GetSYSCLKSource
 .text.RCC_HCLKConfig
                0x08004468       0x14 obj\release\spl\src\stm32f4xx_rcc.o
                0x08004468                RCC_HCLKConfig
 .text.RCC_PCLK1Config
                0x0800447c       0x14 obj\release\spl\src\stm32f4xx_rcc.o
                0x0800447c                RCC_PCLK1Config
 .text.RCC_PCLK2Config
                0x08004490       0x14 obj\release\spl\src\stm32f4xx_rcc.o
                0x08004490                RCC_PCLK2Config
 .text.RCC_GetClocksFreq
                0x080044a4       0x98 obj\release\spl\src\stm32f4xx_rcc.o
                0x080044a4                RCC_GetClocksFreq
 .text.RCC_RTCCLKConfig
                0x0800453c       0x30 obj\release\spl\src\stm32f4xx_rcc.o
                0x0800453c                RCC_RTCCLKConfig
 .text.RCC_RTCCLKCmd
                0x0800456c        0xc obj\release\spl\src\stm32f4xx_rcc.o
                0x0800456c                RCC_RTCCLKCmd
 .text.RCC_BackupResetCmd
                0x08004578        0xc obj\release\spl\src\stm32f4xx_rcc.o
                0x08004578                RCC_BackupResetCmd
 .text.RCC_I2SCLKConfig
                0x08004584        0xc obj\release\spl\src\stm32f4xx_rcc.o
                0x08004584                RCC_I2SCLKConfig
 .text.RCC_AHB1PeriphClockCmd
                0x08004590       0x1c obj\release\spl\src\stm32f4xx_rcc.o
                0x08004590                RCC_AHB1PeriphClockCmd
 .text.RCC_AHB2PeriphClockCmd
                0x080045ac       0x1c obj\release\spl\src\stm32f4xx_rcc.o
                0x080045ac                RCC_AHB2PeriphClockCmd
 .text.RCC_AHB3PeriphClockCmd
                0x080045c8       0x1c obj\release\spl\src\stm32f4xx_rcc.o
                0x080045c8                RCC_AHB3PeriphClockCmd
 .text.RCC_APB1PeriphClockCmd
                0x080045e4       0x1c obj\release\spl\src\stm32f4xx_rcc.o
                0x080045e4                RCC_APB1PeriphClockCmd
 .text.RCC_APB2PeriphClockCmd
                0x08004600       0x1c obj\release\spl\src\stm32f4xx_rcc.o
                0x08004600                RCC_APB2PeriphClockCmd
 .text.RCC_AHB1PeriphResetCmd
                0x0800461c       0x1c obj\release\spl\src\stm32f4xx_rcc.o
                0x0800461c                RCC_AHB1PeriphResetCmd
 .text.RCC_AHB2PeriphResetCmd
                0x08004638       0x1c obj\release\spl\src\stm32f4xx_rcc.o
                0x08004638                RCC_AHB2PeriphResetCmd
 .text.RCC_AHB3PeriphResetCmd
                0x08004654       0x1c obj\release\spl\src\stm32f4xx_rcc.o
                0x08004654                RCC_AHB3PeriphResetCmd
 .text.RCC_APB1PeriphResetCmd
                0x08004670       0x1c obj\release\spl\src\stm32f4xx_rcc.o
                0x08004670                RCC_APB1PeriphResetCmd
 .text.RCC_APB2PeriphResetCmd
                0x0800468c       0x1c obj\release\spl\src\stm32f4xx_rcc.o
                0x0800468c                RCC_APB2PeriphResetCmd
 .text.RCC_AHB1PeriphClockLPModeCmd
                0x080046a8       0x1c obj\release\spl\src\stm32f4xx_rcc.o
                0x080046a8                RCC_AHB1PeriphClockLPModeCmd
 .text.RCC_AHB2PeriphClockLPModeCmd
                0x080046c4       0x1c obj\release\spl\src\stm32f4xx_rcc.o
                0x080046c4                RCC_AHB2PeriphClockLPModeCmd
 .text.RCC_AHB3PeriphClockLPModeCmd
                0x080046e0       0x1c obj\release\spl\src\stm32f4xx_rcc.o
                0x080046e0                RCC_AHB3PeriphClockLPModeCmd
 .text.RCC_APB1PeriphClockLPModeCmd
                0x080046fc       0x1c obj\release\spl\src\stm32f4xx_rcc.o
                0x080046fc                RCC_APB1PeriphClockLPModeCmd
 .text.RCC_APB2PeriphClockLPModeCmd
                0x08004718       0x1c obj\release\spl\src\stm32f4xx_rcc.o
                0x08004718                RCC_APB2PeriphClockLPModeCmd
 .text.RCC_ITConfig
                0x08004734       0x1c obj\release\spl\src\stm32f4xx_rcc.o
                0x08004734                RCC_ITConfig
 .text.RCC_GetFlagStatus
                0x08004750       0x34 obj\release\spl\src\stm32f4xx_rcc.o
                0x08004750                RCC_GetFlagStatus
 .text.RCC_ClearFlag
                0x08004784       0x10 obj\release\spl\src\stm32f4xx_rcc.o
                0x08004784                RCC_ClearFlag
 .text.RCC_GetITStatus
                0x08004794       0x14 obj\release\spl\src\stm32f4xx_rcc.o
                0x08004794                RCC_GetITStatus
 .text.RCC_ClearITPendingBit
                0x080047a8        0xc obj\release\spl\src\stm32f4xx_rcc.o
                0x080047a8                RCC_ClearITPendingBit
 .text          0x080047b4        0x0 obj\release\spl\src\stm32f4xx_rng.o
 .text.RNG_DeInit
                0x080047b4       0x18 obj\release\spl\src\stm32f4xx_rng.o
                0x080047b4                RNG_DeInit
 .text.RNG_Cmd  0x080047cc       0x1c obj\release\spl\src\stm32f4xx_rng.o
                0x080047cc                RNG_Cmd
 .text.RNG_GetRandomNumber
                0x080047e8        0xc obj\release\spl\src\stm32f4xx_rng.o
                0x080047e8                RNG_GetRandomNumber
 .text.RNG_ITConfig
                0x080047f4       0x1c obj\release\spl\src\stm32f4xx_rng.o
                0x080047f4                RNG_ITConfig
 .text.RNG_GetFlagStatus
                0x08004810       0x14 obj\release\spl\src\stm32f4xx_rng.o
                0x08004810                RNG_GetFlagStatus
 .text.RNG_ClearFlag
                0x08004824       0x10 obj\release\spl\src\stm32f4xx_rng.o
                0x08004824                RNG_ClearFlag
 .text.RNG_GetITStatus
                0x08004834       0x14 obj\release\spl\src\stm32f4xx_rng.o
                0x08004834                RNG_GetITStatus
 .text.RNG_ClearITPendingBit
                0x08004848       0x10 obj\release\spl\src\stm32f4xx_rng.o
                0x08004848                RNG_ClearITPendingBit
 .text          0x08004858        0x0 obj\release\spl\src\stm32f4xx_rtc.o
 .text.RTC_DeInit
                0x08004858       0xe8 obj\release\spl\src\stm32f4xx_rtc.o
                0x08004858                RTC_DeInit
 .text.RTC_Init
                0x08004940       0x80 obj\release\spl\src\stm32f4xx_rtc.o
                0x08004940                RTC_Init
 .text.RTC_StructInit
                0x080049c0        0xc obj\release\spl\src\stm32f4xx_rtc.o
                0x080049c0                RTC_StructInit
 .text.RTC_WriteProtectionCmd
                0x080049cc       0x18 obj\release\spl\src\stm32f4xx_rtc.o
                0x080049cc                RTC_WriteProtectionCmd
 .text.RTC_EnterInitMode
                0x080049e4       0x44 obj\release\spl\src\stm32f4xx_rtc.o
                0x080049e4                RTC_EnterInitMode
 .text.RTC_ExitInitMode
                0x08004a28       0x10 obj\release\spl\src\stm32f4xx_rtc.o
                0x08004a28                RTC_ExitInitMode
 .text.RTC_WaitForSynchro
                0x08004a38       0x44 obj\release\spl\src\stm32f4xx_rtc.o
                0x08004a38                RTC_WaitForSynchro
 .text.RTC_RefClockCmd
                0x08004a7c       0x7c obj\release\spl\src\stm32f4xx_rtc.o
                0x08004a7c                RTC_RefClockCmd
 .text.RTC_BypassShadowCmd
                0x08004af8       0x30 obj\release\spl\src\stm32f4xx_rtc.o
                0x08004af8                RTC_BypassShadowCmd
 .text.RTC_SetTime
                0x08004b28      0x150 obj\release\spl\src\stm32f4xx_rtc.o
                0x08004b28                RTC_SetTime
 .text.RTC_TimeStructInit
                0x08004c78        0xc obj\release\spl\src\stm32f4xx_rtc.o
                0x08004c78                RTC_TimeStructInit
 .text.RTC_GetTime
                0x08004c84       0x60 obj\release\spl\src\stm32f4xx_rtc.o
                0x08004c84                RTC_GetTime
 .text.RTC_GetSubSecond
                0x08004ce4        0xc obj\release\spl\src\stm32f4xx_rtc.o
                0x08004ce4                RTC_GetSubSecond
 .text.RTC_SetDate
                0x08004cf0      0x13c obj\release\spl\src\stm32f4xx_rtc.o
                0x08004cf0                RTC_SetDate
 .text.RTC_DateStructInit
                0x08004e2c       0x10 obj\release\spl\src\stm32f4xx_rtc.o
                0x08004e2c                RTC_DateStructInit
 .text.RTC_GetDate
                0x08004e3c       0x60 obj\release\spl\src\stm32f4xx_rtc.o
                0x08004e3c                RTC_GetDate
 .text.RTC_SetAlarm
                0x08004e9c      0x108 obj\release\spl\src\stm32f4xx_rtc.o
                0x08004e9c                RTC_SetAlarm
 .text.RTC_AlarmStructInit
                0x08004fa4       0x10 obj\release\spl\src\stm32f4xx_rtc.o
                0x08004fa4                RTC_AlarmStructInit
 .text.RTC_GetAlarm
                0x08004fb4       0x9c obj\release\spl\src\stm32f4xx_rtc.o
                0x08004fb4                RTC_GetAlarm
 .text.RTC_AlarmCmd
                0x08005050       0x5c obj\release\spl\src\stm32f4xx_rtc.o
                0x08005050                RTC_AlarmCmd
 .text.RTC_AlarmSubSecondConfig
                0x080050ac       0x28 obj\release\spl\src\stm32f4xx_rtc.o
                0x080050ac                RTC_AlarmSubSecondConfig
 .text.RTC_GetAlarmSubSecond
                0x080050d4       0x18 obj\release\spl\src\stm32f4xx_rtc.o
                0x080050d4                RTC_GetAlarmSubSecond
 .text.RTC_WakeUpClockConfig
                0x080050ec       0x24 obj\release\spl\src\stm32f4xx_rtc.o
                0x080050ec                RTC_WakeUpClockConfig
 .text.RTC_SetWakeUpCounter
                0x08005110       0x1c obj\release\spl\src\stm32f4xx_rtc.o
                0x08005110                RTC_SetWakeUpCounter
 .text.RTC_GetWakeUpCounter
                0x0800512c        0xc obj\release\spl\src\stm32f4xx_rtc.o
                0x0800512c                RTC_GetWakeUpCounter
 .text.RTC_WakeUpCmd
                0x08005138       0x58 obj\release\spl\src\stm32f4xx_rtc.o
                0x08005138                RTC_WakeUpCmd
 .text.RTC_DayLightSavingConfig
                0x08005190       0x2c obj\release\spl\src\stm32f4xx_rtc.o
                0x08005190                RTC_DayLightSavingConfig
 .text.RTC_GetStoreOperation
                0x080051bc       0x10 obj\release\spl\src\stm32f4xx_rtc.o
                0x080051bc                RTC_GetStoreOperation
 .text.RTC_OutputConfig
                0x080051cc       0x2c obj\release\spl\src\stm32f4xx_rtc.o
                0x080051cc                RTC_OutputConfig
 .text.RTC_CoarseCalibConfig
                0x080051f8       0x64 obj\release\spl\src\stm32f4xx_rtc.o
                0x080051f8                RTC_CoarseCalibConfig
 .text.RTC_CoarseCalibCmd
                0x0800525c       0x7c obj\release\spl\src\stm32f4xx_rtc.o
                0x0800525c                RTC_CoarseCalibCmd
 .text.RTC_CalibOutputCmd
                0x080052d8       0x30 obj\release\spl\src\stm32f4xx_rtc.o
                0x080052d8                RTC_CalibOutputCmd
 .text.RTC_CalibOutputConfig
                0x08005308       0x24 obj\release\spl\src\stm32f4xx_rtc.o
                0x08005308                RTC_CalibOutputConfig
 .text.RTC_SmoothCalibConfig
                0x0800532c       0x4c obj\release\spl\src\stm32f4xx_rtc.o
                0x0800532c                RTC_SmoothCalibConfig
 .text.RTC_TimeStampCmd
                0x08005378       0x34 obj\release\spl\src\stm32f4xx_rtc.o
                0x08005378                RTC_TimeStampCmd
 .text.RTC_GetTimeStamp
                0x080053ac       0xbc obj\release\spl\src\stm32f4xx_rtc.o
                0x080053ac                RTC_GetTimeStamp
 .text.RTC_GetTimeStampSubSecond
                0x08005468        0xc obj\release\spl\src\stm32f4xx_rtc.o
                0x08005468                RTC_GetTimeStampSubSecond
 .text.RTC_TamperTriggerConfig
                0x08005474       0x1c obj\release\spl\src\stm32f4xx_rtc.o
                0x08005474                RTC_TamperTriggerConfig
 .text.RTC_TamperCmd
                0x08005490       0x1c obj\release\spl\src\stm32f4xx_rtc.o
                0x08005490                RTC_TamperCmd
 .text.RTC_TamperFilterConfig
                0x080054ac       0x18 obj\release\spl\src\stm32f4xx_rtc.o
                0x080054ac                RTC_TamperFilterConfig
 .text.RTC_TamperSamplingFreqConfig
                0x080054c4       0x18 obj\release\spl\src\stm32f4xx_rtc.o
                0x080054c4                RTC_TamperSamplingFreqConfig
 .text.RTC_TamperPinsPrechargeDuration
                0x080054dc       0x18 obj\release\spl\src\stm32f4xx_rtc.o
                0x080054dc                RTC_TamperPinsPrechargeDuration
 .text.RTC_TimeStampOnTamperDetectionCmd
                0x080054f4       0x1c obj\release\spl\src\stm32f4xx_rtc.o
                0x080054f4                RTC_TimeStampOnTamperDetectionCmd
 .text.RTC_TamperPullUpCmd
                0x08005510       0x1c obj\release\spl\src\stm32f4xx_rtc.o
                0x08005510                RTC_TamperPullUpCmd
 .text.RTC_WriteBackupRegister
                0x0800552c       0x20 obj\release\spl\src\stm32f4xx_rtc.o
                0x0800552c                RTC_WriteBackupRegister
 .text.RTC_ReadBackupRegister
                0x0800554c       0x20 obj\release\spl\src\stm32f4xx_rtc.o
                0x0800554c                RTC_ReadBackupRegister
 .text.RTC_TamperPinSelection
                0x0800556c       0x18 obj\release\spl\src\stm32f4xx_rtc.o
                0x0800556c                RTC_TamperPinSelection
 .text.RTC_TimeStampPinSelection
                0x08005584       0x18 obj\release\spl\src\stm32f4xx_rtc.o
                0x08005584                RTC_TimeStampPinSelection
 .text.RTC_OutputTypeConfig
                0x0800559c       0x18 obj\release\spl\src\stm32f4xx_rtc.o
                0x0800559c                RTC_OutputTypeConfig
 .text.RTC_SynchroShiftConfig
                0x080055b4       0x98 obj\release\spl\src\stm32f4xx_rtc.o
                0x080055b4                RTC_SynchroShiftConfig
 .text.RTC_ITConfig
                0x0800564c       0x4c obj\release\spl\src\stm32f4xx_rtc.o
                0x0800564c                RTC_ITConfig
 .text.RTC_GetFlagStatus
                0x08005698       0x18 obj\release\spl\src\stm32f4xx_rtc.o
                0x08005698                RTC_GetFlagStatus
 .text.RTC_ClearFlag
                0x080056b0       0x1c obj\release\spl\src\stm32f4xx_rtc.o
                0x080056b0                RTC_ClearFlag
 .text.RTC_GetITStatus
                0x080056cc       0x2c obj\release\spl\src\stm32f4xx_rtc.o
                0x080056cc                RTC_GetITStatus
 .text.RTC_ClearITPendingBit
                0x080056f8       0x1c obj\release\spl\src\stm32f4xx_rtc.o
                0x080056f8                RTC_ClearITPendingBit
 .text          0x08005714        0x0 obj\release\spl\src\stm32f4xx_sdio.o
 .text.SDIO_DeInit
                0x08005714       0x1c obj\release\spl\src\stm32f4xx_sdio.o
                0x08005714                SDIO_DeInit
 .text.SDIO_Init
                0x08005730       0x38 obj\release\spl\src\stm32f4xx_sdio.o
                0x08005730                SDIO_Init
 .text.SDIO_StructInit
                0x08005768       0x10 obj\release\spl\src\stm32f4xx_sdio.o
                0x08005768                SDIO_StructInit
 .text.SDIO_ClockCmd
                0x08005778        0xc obj\release\spl\src\stm32f4xx_sdio.o
                0x08005778                SDIO_ClockCmd
 .text.SDIO_SetPowerState
                0x08005784        0xc obj\release\spl\src\stm32f4xx_sdio.o
                0x08005784                SDIO_SetPowerState
 .text.SDIO_GetPowerState
                0x08005790       0x10 obj\release\spl\src\stm32f4xx_sdio.o
                0x08005790                SDIO_GetPowerState
 .text.SDIO_SendCommand
                0x080057a0       0x30 obj\release\spl\src\stm32f4xx_sdio.o
                0x080057a0                SDIO_SendCommand
 .text.SDIO_CmdStructInit
                0x080057d0       0x10 obj\release\spl\src\stm32f4xx_sdio.o
                0x080057d0                SDIO_CmdStructInit
 .text.SDIO_GetCommandResponse
                0x080057e0        0xc obj\release\spl\src\stm32f4xx_sdio.o
                0x080057e0                SDIO_GetCommandResponse
 .text.SDIO_GetResponse
                0x080057ec       0x18 obj\release\spl\src\stm32f4xx_sdio.o
                0x080057ec                SDIO_GetResponse
 .text.SDIO_DataConfig
                0x08005804       0x2c obj\release\spl\src\stm32f4xx_sdio.o
                0x08005804                SDIO_DataConfig
 .text.SDIO_DataStructInit
                0x08005830       0x14 obj\release\spl\src\stm32f4xx_sdio.o
                0x08005830                SDIO_DataStructInit
 .text.SDIO_GetDataCounter
                0x08005844        0xc obj\release\spl\src\stm32f4xx_sdio.o
                0x08005844                SDIO_GetDataCounter
 .text.SDIO_ReadData
                0x08005850        0xc obj\release\spl\src\stm32f4xx_sdio.o
                0x08005850                SDIO_ReadData
 .text.SDIO_WriteData
                0x0800585c        0xc obj\release\spl\src\stm32f4xx_sdio.o
                0x0800585c                SDIO_WriteData
 .text.SDIO_GetFIFOCount
                0x08005868        0xc obj\release\spl\src\stm32f4xx_sdio.o
                0x08005868                SDIO_GetFIFOCount
 .text.SDIO_StartSDIOReadWait
                0x08005874        0xc obj\release\spl\src\stm32f4xx_sdio.o
                0x08005874                SDIO_StartSDIOReadWait
 .text.SDIO_StopSDIOReadWait
                0x08005880        0xc obj\release\spl\src\stm32f4xx_sdio.o
                0x08005880                SDIO_StopSDIOReadWait
 .text.SDIO_SetSDIOReadWaitMode
                0x0800588c        0xc obj\release\spl\src\stm32f4xx_sdio.o
                0x0800588c                SDIO_SetSDIOReadWaitMode
 .text.SDIO_SetSDIOOperation
                0x08005898        0xc obj\release\spl\src\stm32f4xx_sdio.o
                0x08005898                SDIO_SetSDIOOperation
 .text.SDIO_SendSDIOSuspendCmd
                0x080058a4        0xc obj\release\spl\src\stm32f4xx_sdio.o
                0x080058a4                SDIO_SendSDIOSuspendCmd
 .text.SDIO_CommandCompletionCmd
                0x080058b0        0xc obj\release\spl\src\stm32f4xx_sdio.o
                0x080058b0                SDIO_CommandCompletionCmd
 .text.SDIO_CEATAITCmd
                0x080058bc       0x14 obj\release\spl\src\stm32f4xx_sdio.o
                0x080058bc                SDIO_CEATAITCmd
 .text.SDIO_SendCEATACmd
                0x080058d0        0xc obj\release\spl\src\stm32f4xx_sdio.o
                0x080058d0                SDIO_SendCEATACmd
 .text.SDIO_DMACmd
                0x080058dc        0xc obj\release\spl\src\stm32f4xx_sdio.o
                0x080058dc                SDIO_DMACmd
 .text.SDIO_ITConfig
                0x080058e8       0x1c obj\release\spl\src\stm32f4xx_sdio.o
                0x080058e8                SDIO_ITConfig
 .text.SDIO_GetFlagStatus
                0x08005904       0x14 obj\release\spl\src\stm32f4xx_sdio.o
                0x08005904                SDIO_GetFlagStatus
 .text.SDIO_ClearFlag
                0x08005918        0xc obj\release\spl\src\stm32f4xx_sdio.o
                0x08005918                SDIO_ClearFlag
 .text.SDIO_GetITStatus
                0x08005924       0x14 obj\release\spl\src\stm32f4xx_sdio.o
                0x08005924                SDIO_GetITStatus
 .text.SDIO_ClearITPendingBit
                0x08005938        0xc obj\release\spl\src\stm32f4xx_sdio.o
                0x08005938                SDIO_ClearITPendingBit
 .text          0x08005944        0x0 obj\release\spl\src\stm32f4xx_spi.o
 .text.SPI_I2S_DeInit
                0x08005944       0x6c obj\release\spl\src\stm32f4xx_spi.o
                0x08005944                SPI_I2S_DeInit
 .text.SPI_Init
                0x080059b0       0x40 obj\release\spl\src\stm32f4xx_spi.o
                0x080059b0                SPI_Init
 .text.I2S_Init
                0x080059f0       0xe8 obj\release\spl\src\stm32f4xx_spi.o
                0x080059f0                I2S_Init
 .text.SPI_StructInit
                0x08005ad8       0x18 obj\release\spl\src\stm32f4xx_spi.o
                0x08005ad8                SPI_StructInit
 .text.I2S_StructInit
                0x08005af0       0x10 obj\release\spl\src\stm32f4xx_spi.o
                0x08005af0                I2S_StructInit
 .text.SPI_Cmd  0x08005b00       0x1c obj\release\spl\src\stm32f4xx_spi.o
                0x08005b00                SPI_Cmd
 .text.I2S_Cmd  0x08005b1c       0x1c obj\release\spl\src\stm32f4xx_spi.o
                0x08005b1c                I2S_Cmd
 .text.SPI_DataSizeConfig
                0x08005b38       0x18 obj\release\spl\src\stm32f4xx_spi.o
                0x08005b38                SPI_DataSizeConfig
 .text.SPI_BiDirectionalLineConfig
                0x08005b50       0x20 obj\release\spl\src\stm32f4xx_spi.o
                0x08005b50                SPI_BiDirectionalLineConfig
 .text.SPI_NSSInternalSoftwareConfig
                0x08005b70       0x20 obj\release\spl\src\stm32f4xx_spi.o
                0x08005b70                SPI_NSSInternalSoftwareConfig
 .text.SPI_SSOutputCmd
                0x08005b90       0x1c obj\release\spl\src\stm32f4xx_spi.o
                0x08005b90                SPI_SSOutputCmd
 .text.SPI_TIModeCmd
                0x08005bac       0x1c obj\release\spl\src\stm32f4xx_spi.o
                0x08005bac                SPI_TIModeCmd
 .text.I2S_FullDuplexConfig
                0x08005bc8       0x48 obj\release\spl\src\stm32f4xx_spi.o
                0x08005bc8                I2S_FullDuplexConfig
 .text.SPI_I2S_ReceiveData
                0x08005c10        0x8 obj\release\spl\src\stm32f4xx_spi.o
                0x08005c10                SPI_I2S_ReceiveData
 .text.SPI_I2S_SendData
                0x08005c18        0x4 obj\release\spl\src\stm32f4xx_spi.o
                0x08005c18                SPI_I2S_SendData
 .text.SPI_CalculateCRC
                0x08005c1c       0x1c obj\release\spl\src\stm32f4xx_spi.o
                0x08005c1c                SPI_CalculateCRC
 .text.SPI_TransmitCRC
                0x08005c38        0xc obj\release\spl\src\stm32f4xx_spi.o
                0x08005c38                SPI_TransmitCRC
 .text.SPI_GetCRC
                0x08005c44        0xc obj\release\spl\src\stm32f4xx_spi.o
                0x08005c44                SPI_GetCRC
 .text.SPI_GetCRCPolynomial
                0x08005c50        0x8 obj\release\spl\src\stm32f4xx_spi.o
                0x08005c50                SPI_GetCRCPolynomial
 .text.SPI_I2S_DMACmd
                0x08005c58       0x14 obj\release\spl\src\stm32f4xx_spi.o
                0x08005c58                SPI_I2S_DMACmd
 .text.SPI_I2S_ITConfig
                0x08005c6c       0x20 obj\release\spl\src\stm32f4xx_spi.o
                0x08005c6c                SPI_I2S_ITConfig
 .text.SPI_I2S_GetFlagStatus
                0x08005c8c        0xc obj\release\spl\src\stm32f4xx_spi.o
                0x08005c8c                SPI_I2S_GetFlagStatus
 .text.SPI_I2S_ClearFlag
                0x08005c98        0x8 obj\release\spl\src\stm32f4xx_spi.o
                0x08005c98                SPI_I2S_ClearFlag
 .text.SPI_I2S_GetITStatus
                0x08005ca0       0x2c obj\release\spl\src\stm32f4xx_spi.o
                0x08005ca0                SPI_I2S_GetITStatus
 .text.SPI_I2S_ClearITPendingBit
                0x08005ccc       0x14 obj\release\spl\src\stm32f4xx_spi.o
                0x08005ccc                SPI_I2S_ClearITPendingBit
 .text          0x08005ce0        0x0 obj\release\spl\src\stm32f4xx_syscfg.o
 .text.SYSCFG_DeInit
                0x08005ce0       0x1c obj\release\spl\src\stm32f4xx_syscfg.o
                0x08005ce0                SYSCFG_DeInit
 .text.SYSCFG_MemoryRemapConfig
                0x08005cfc        0xc obj\release\spl\src\stm32f4xx_syscfg.o
                0x08005cfc                SYSCFG_MemoryRemapConfig
 .text.SYSCFG_EXTILineConfig
                0x08005d08       0x30 obj\release\spl\src\stm32f4xx_syscfg.o
                0x08005d08                SYSCFG_EXTILineConfig
 .text.SYSCFG_ETH_MediaInterfaceConfig
                0x08005d38        0xc obj\release\spl\src\stm32f4xx_syscfg.o
                0x08005d38                SYSCFG_ETH_MediaInterfaceConfig
 .text.SYSCFG_CompensationCellCmd
                0x08005d44        0xc obj\release\spl\src\stm32f4xx_syscfg.o
                0x08005d44                SYSCFG_CompensationCellCmd
 .text.SYSCFG_GetCompensationCellStatus
                0x08005d50       0x10 obj\release\spl\src\stm32f4xx_syscfg.o
                0x08005d50                SYSCFG_GetCompensationCellStatus
 .text          0x08005d60        0x0 obj\release\spl\src\stm32f4xx_tim.o
 .text.TIM_DeInit
                0x08005d60      0x1b8 obj\release\spl\src\stm32f4xx_tim.o
                0x08005d60                TIM_DeInit
 .text.TIM_TimeBaseInit
                0x08005f18       0x9c obj\release\spl\src\stm32f4xx_tim.o
                0x08005f18                TIM_TimeBaseInit
 .text.TIM_TimeBaseStructInit
                0x08005fb4       0x14 obj\release\spl\src\stm32f4xx_tim.o
                0x08005fb4                TIM_TimeBaseStructInit
 .text.TIM_PrescalerConfig
                0x08005fc8        0x8 obj\release\spl\src\stm32f4xx_tim.o
                0x08005fc8                TIM_PrescalerConfig
 .text.TIM_CounterModeConfig
                0x08005fd0       0x10 obj\release\spl\src\stm32f4xx_tim.o
                0x08005fd0                TIM_CounterModeConfig
 .text.TIM_SetCounter
                0x08005fe0        0x4 obj\release\spl\src\stm32f4xx_tim.o
                0x08005fe0                TIM_SetCounter
 .text.TIM_SetAutoreload
                0x08005fe4        0x4 obj\release\spl\src\stm32f4xx_tim.o
                0x08005fe4                TIM_SetAutoreload
 .text.TIM_GetCounter
                0x08005fe8        0x4 obj\release\spl\src\stm32f4xx_tim.o
                0x08005fe8                TIM_GetCounter
 .text.TIM_GetPrescaler
                0x08005fec        0x8 obj\release\spl\src\stm32f4xx_tim.o
                0x08005fec                TIM_GetPrescaler
 .text.TIM_UpdateDisableConfig
                0x08005ff4       0x1c obj\release\spl\src\stm32f4xx_tim.o
                0x08005ff4                TIM_UpdateDisableConfig
 .text.TIM_UpdateRequestConfig
                0x08006010       0x1c obj\release\spl\src\stm32f4xx_tim.o
                0x08006010                TIM_UpdateRequestConfig
 .text.TIM_ARRPreloadConfig
                0x0800602c       0x1c obj\release\spl\src\stm32f4xx_tim.o
                0x0800602c                TIM_ARRPreloadConfig
 .text.TIM_SelectOnePulseMode
                0x08006048       0x18 obj\release\spl\src\stm32f4xx_tim.o
                0x08006048                TIM_SelectOnePulseMode
 .text.TIM_SetClockDivision
                0x08006060       0x18 obj\release\spl\src\stm32f4xx_tim.o
                0x08006060                TIM_SetClockDivision
 .text.TIM_Cmd  0x08006078       0x1c obj\release\spl\src\stm32f4xx_tim.o
                0x08006078                TIM_Cmd
 .text.TIM_OC1Init
                0x08006094       0x78 obj\release\spl\src\stm32f4xx_tim.o
                0x08006094                TIM_OC1Init
 .text.TIM_OC2Init
                0x0800610c       0x8c obj\release\spl\src\stm32f4xx_tim.o
                0x0800610c                TIM_OC2Init
 .text.TIM_OC3Init
                0x08006198       0x8c obj\release\spl\src\stm32f4xx_tim.o
                0x08006198                TIM_OC3Init
 .text.TIM_OC4Init
                0x08006224       0x6c obj\release\spl\src\stm32f4xx_tim.o
                0x08006224                TIM_OC4Init
 .text.TIM_OCStructInit
                0x08006290       0x14 obj\release\spl\src\stm32f4xx_tim.o
                0x08006290                TIM_OCStructInit
 .text.TIM_SelectOCxM
                0x080062a4       0x50 obj\release\spl\src\stm32f4xx_tim.o
                0x080062a4                TIM_SelectOCxM
 .text.TIM_SetCompare1
                0x080062f4        0x4 obj\release\spl\src\stm32f4xx_tim.o
                0x080062f4                TIM_SetCompare1
 .text.TIM_SetCompare2
                0x080062f8        0x4 obj\release\spl\src\stm32f4xx_tim.o
                0x080062f8                TIM_SetCompare2
 .text.TIM_SetCompare3
                0x080062fc        0x4 obj\release\spl\src\stm32f4xx_tim.o
                0x080062fc                TIM_SetCompare3
 .text.TIM_SetCompare4
                0x08006300        0x4 obj\release\spl\src\stm32f4xx_tim.o
                0x08006300                TIM_SetCompare4
 .text.TIM_ForcedOC1Config
                0x08006304       0x10 obj\release\spl\src\stm32f4xx_tim.o
                0x08006304                TIM_ForcedOC1Config
 .text.TIM_ForcedOC2Config
                0x08006314       0x14 obj\release\spl\src\stm32f4xx_tim.o
                0x08006314                TIM_ForcedOC2Config
 .text.TIM_ForcedOC3Config
                0x08006328       0x10 obj\release\spl\src\stm32f4xx_tim.o
                0x08006328                TIM_ForcedOC3Config
 .text.TIM_ForcedOC4Config
                0x08006338       0x14 obj\release\spl\src\stm32f4xx_tim.o
                0x08006338                TIM_ForcedOC4Config
 .text.TIM_OC1PreloadConfig
                0x0800634c       0x10 obj\release\spl\src\stm32f4xx_tim.o
                0x0800634c                TIM_OC1PreloadConfig
 .text.TIM_OC2PreloadConfig
                0x0800635c       0x14 obj\release\spl\src\stm32f4xx_tim.o
                0x0800635c                TIM_OC2PreloadConfig
 .text.TIM_OC3PreloadConfig
                0x08006370       0x10 obj\release\spl\src\stm32f4xx_tim.o
                0x08006370                TIM_OC3PreloadConfig
 .text.TIM_OC4PreloadConfig
                0x08006380       0x14 obj\release\spl\src\stm32f4xx_tim.o
                0x08006380                TIM_OC4PreloadConfig
 .text.TIM_OC1FastConfig
                0x08006394       0x10 obj\release\spl\src\stm32f4xx_tim.o
                0x08006394                TIM_OC1FastConfig
 .text.TIM_OC2FastConfig
                0x080063a4       0x14 obj\release\spl\src\stm32f4xx_tim.o
                0x080063a4                TIM_OC2FastConfig
 .text.TIM_OC3FastConfig
                0x080063b8       0x10 obj\release\spl\src\stm32f4xx_tim.o
                0x080063b8                TIM_OC3FastConfig
 .text.TIM_OC4FastConfig
                0x080063c8       0x14 obj\release\spl\src\stm32f4xx_tim.o
                0x080063c8                TIM_OC4FastConfig
 .text.TIM_ClearOC1Ref
                0x080063dc       0x10 obj\release\spl\src\stm32f4xx_tim.o
                0x080063dc                TIM_ClearOC1Ref
 .text.TIM_ClearOC2Ref
                0x080063ec       0x10 obj\release\spl\src\stm32f4xx_tim.o
                0x080063ec                TIM_ClearOC2Ref
 .text.TIM_ClearOC3Ref
                0x080063fc       0x10 obj\release\spl\src\stm32f4xx_tim.o
                0x080063fc                TIM_ClearOC3Ref
 .text.TIM_ClearOC4Ref
                0x0800640c       0x10 obj\release\spl\src\stm32f4xx_tim.o
                0x0800640c                TIM_ClearOC4Ref
 .text.TIM_OC1PolarityConfig
                0x0800641c       0x10 obj\release\spl\src\stm32f4xx_tim.o
                0x0800641c                TIM_OC1PolarityConfig
 .text.TIM_OC1NPolarityConfig
                0x0800642c       0x10 obj\release\spl\src\stm32f4xx_tim.o
                0x0800642c                TIM_OC1NPolarityConfig
 .text.TIM_OC2PolarityConfig
                0x0800643c       0x14 obj\release\spl\src\stm32f4xx_tim.o
                0x0800643c                TIM_OC2PolarityConfig
 .text.TIM_OC2NPolarityConfig
                0x08006450       0x14 obj\release\spl\src\stm32f4xx_tim.o
                0x08006450                TIM_OC2NPolarityConfig
 .text.TIM_OC3PolarityConfig
                0x08006464       0x14 obj\release\spl\src\stm32f4xx_tim.o
                0x08006464                TIM_OC3PolarityConfig
 .text.TIM_OC3NPolarityConfig
                0x08006478       0x14 obj\release\spl\src\stm32f4xx_tim.o
                0x08006478                TIM_OC3NPolarityConfig
 .text.TIM_OC4PolarityConfig
                0x0800648c       0x14 obj\release\spl\src\stm32f4xx_tim.o
                0x0800648c                TIM_OC4PolarityConfig
 .text.TIM_CCxCmd
                0x080064a0       0x20 obj\release\spl\src\stm32f4xx_tim.o
                0x080064a0                TIM_CCxCmd
 .text.TIM_CCxNCmd
                0x080064c0       0x20 obj\release\spl\src\stm32f4xx_tim.o
                0x080064c0                TIM_CCxNCmd
 .text.TIM_ICInit
                0x080064e0      0x168 obj\release\spl\src\stm32f4xx_tim.o
                0x080064e0                TIM_ICInit
 .text.TIM_ICStructInit
                0x08006648       0x10 obj\release\spl\src\stm32f4xx_tim.o
                0x08006648                TIM_ICStructInit
 .text.TIM_PWMIConfig
                0x08006658      0x160 obj\release\spl\src\stm32f4xx_tim.o
                0x08006658                TIM_PWMIConfig
 .text.TIM_GetCapture1
                0x080067b8        0x4 obj\release\spl\src\stm32f4xx_tim.o
                0x080067b8                TIM_GetCapture1
 .text.TIM_GetCapture2
                0x080067bc        0x4 obj\release\spl\src\stm32f4xx_tim.o
                0x080067bc                TIM_GetCapture2
 .text.TIM_GetCapture3
                0x080067c0        0x4 obj\release\spl\src\stm32f4xx_tim.o
                0x080067c0                TIM_GetCapture3
 .text.TIM_GetCapture4
                0x080067c4        0x4 obj\release\spl\src\stm32f4xx_tim.o
                0x080067c4                TIM_GetCapture4
 .text.TIM_SetIC1Prescaler
                0x080067c8       0x18 obj\release\spl\src\stm32f4xx_tim.o
                0x080067c8                TIM_SetIC1Prescaler
 .text.TIM_SetIC2Prescaler
                0x080067e0       0x1c obj\release\spl\src\stm32f4xx_tim.o
                0x080067e0                TIM_SetIC2Prescaler
 .text.TIM_SetIC3Prescaler
                0x080067fc       0x18 obj\release\spl\src\stm32f4xx_tim.o
                0x080067fc                TIM_SetIC3Prescaler
 .text.TIM_SetIC4Prescaler
                0x08006814       0x1c obj\release\spl\src\stm32f4xx_tim.o
                0x08006814                TIM_SetIC4Prescaler
 .text.TIM_BDTRConfig
                0x08006830       0x28 obj\release\spl\src\stm32f4xx_tim.o
                0x08006830                TIM_BDTRConfig
 .text.TIM_BDTRStructInit
                0x08006858       0x14 obj\release\spl\src\stm32f4xx_tim.o
                0x08006858                TIM_BDTRStructInit
 .text.TIM_CtrlPWMOutputs
                0x0800686c       0x20 obj\release\spl\src\stm32f4xx_tim.o
                0x0800686c                TIM_CtrlPWMOutputs
 .text.TIM_SelectCOM
                0x0800688c       0x1c obj\release\spl\src\stm32f4xx_tim.o
                0x0800688c                TIM_SelectCOM
 .text.TIM_CCPreloadControl
                0x080068a8       0x1c obj\release\spl\src\stm32f4xx_tim.o
                0x080068a8                TIM_CCPreloadControl
 .text.TIM_ITConfig
                0x080068c4       0x14 obj\release\spl\src\stm32f4xx_tim.o
                0x080068c4                TIM_ITConfig
 .text.TIM_GenerateEvent
                0x080068d8        0x4 obj\release\spl\src\stm32f4xx_tim.o
                0x080068d8                TIM_GenerateEvent
 .text.TIM_GetFlagStatus
                0x080068dc        0xc obj\release\spl\src\stm32f4xx_tim.o
                0x080068dc                TIM_GetFlagStatus
 .text.TIM_ClearFlag
                0x080068e8        0x8 obj\release\spl\src\stm32f4xx_tim.o
                0x080068e8                TIM_ClearFlag
 .text.TIM_GetITStatus
                0x080068f0       0x18 obj\release\spl\src\stm32f4xx_tim.o
                0x080068f0                TIM_GetITStatus
 .text.TIM_ClearITPendingBit
                0x08006908        0x8 obj\release\spl\src\stm32f4xx_tim.o
                0x08006908                TIM_ClearITPendingBit
 .text.TIM_DMAConfig
                0x08006910        0x8 obj\release\spl\src\stm32f4xx_tim.o
                0x08006910                TIM_DMAConfig
 .text.TIM_DMACmd
                0x08006918       0x14 obj\release\spl\src\stm32f4xx_tim.o
                0x08006918                TIM_DMACmd
 .text.TIM_SelectCCDMA
                0x0800692c       0x1c obj\release\spl\src\stm32f4xx_tim.o
                0x0800692c                TIM_SelectCCDMA
 .text.TIM_InternalClockConfig
                0x08006948       0x10 obj\release\spl\src\stm32f4xx_tim.o
                0x08006948                TIM_InternalClockConfig
 .text.TIM_ITRxExternalClockConfig
                0x08006958       0x1c obj\release\spl\src\stm32f4xx_tim.o
                0x08006958                TIM_ITRxExternalClockConfig
 .text.TIM_TIxExternalClockConfig
                0x08006974       0x88 obj\release\spl\src\stm32f4xx_tim.o
                0x08006974                TIM_TIxExternalClockConfig
 .text.TIM_ETRClockMode1Config
                0x080069fc       0x28 obj\release\spl\src\stm32f4xx_tim.o
                0x080069fc                TIM_ETRClockMode1Config
 .text.TIM_ETRClockMode2Config
                0x08006a24       0x24 obj\release\spl\src\stm32f4xx_tim.o
                0x08006a24                TIM_ETRClockMode2Config
 .text.TIM_SelectInputTrigger
                0x08006a48       0x10 obj\release\spl\src\stm32f4xx_tim.o
                0x08006a48                TIM_SelectInputTrigger
 .text.TIM_SelectOutputTrigger
                0x08006a58       0x18 obj\release\spl\src\stm32f4xx_tim.o
                0x08006a58                TIM_SelectOutputTrigger
 .text.TIM_SelectSlaveMode
                0x08006a70       0x18 obj\release\spl\src\stm32f4xx_tim.o
                0x08006a70                TIM_SelectSlaveMode
 .text.TIM_SelectMasterSlaveMode
                0x08006a88       0x18 obj\release\spl\src\stm32f4xx_tim.o
                0x08006a88                TIM_SelectMasterSlaveMode
 .text.TIM_ETRConfig
                0x08006aa0       0x18 obj\release\spl\src\stm32f4xx_tim.o
                0x08006aa0                TIM_ETRConfig
 .text.TIM_EncoderInterfaceConfig
                0x08006ab8       0x40 obj\release\spl\src\stm32f4xx_tim.o
                0x08006ab8                TIM_EncoderInterfaceConfig
 .text.TIM_SelectHallSensor
                0x08006af8       0x1c obj\release\spl\src\stm32f4xx_tim.o
                0x08006af8                TIM_SelectHallSensor
 .text.TIM_RemapConfig
                0x08006b14        0x8 obj\release\spl\src\stm32f4xx_tim.o
                0x08006b14                TIM_RemapConfig
 .text          0x08006b1c        0x0 obj\release\spl\src\stm32f4xx_usart.o
 .text.USART_DeInit
                0x08006b1c       0xc8 obj\release\spl\src\stm32f4xx_usart.o
                0x08006b1c                USART_DeInit
 .text.USART_Init
                0x08006be4       0xc4 obj\release\spl\src\stm32f4xx_usart.o
                0x08006be4                USART_Init
 .text.USART_StructInit
                0x08006ca8       0x18 obj\release\spl\src\stm32f4xx_usart.o
                0x08006ca8                USART_StructInit
 .text.USART_ClockInit
                0x08006cc0       0x24 obj\release\spl\src\stm32f4xx_usart.o
                0x08006cc0                USART_ClockInit
 .text.USART_ClockStructInit
                0x08006ce4        0xc obj\release\spl\src\stm32f4xx_usart.o
                0x08006ce4                USART_ClockStructInit
 .text.USART_Cmd
                0x08006cf0       0x1c obj\release\spl\src\stm32f4xx_usart.o
                0x08006cf0                USART_Cmd
 .text.USART_SetPrescaler
                0x08006d0c       0x14 obj\release\spl\src\stm32f4xx_usart.o
                0x08006d0c                USART_SetPrescaler
 .text.USART_OverSampling8Cmd
                0x08006d20       0x1c obj\release\spl\src\stm32f4xx_usart.o
                0x08006d20                USART_OverSampling8Cmd
 .text.USART_OneBitMethodCmd
                0x08006d3c       0x1c obj\release\spl\src\stm32f4xx_usart.o
                0x08006d3c                USART_OneBitMethodCmd
 .text.USART_SendData
                0x08006d58        0x8 obj\release\spl\src\stm32f4xx_usart.o
                0x08006d58                USART_SendData
 .text.USART_ReceiveData
                0x08006d60        0x8 obj\release\spl\src\stm32f4xx_usart.o
                0x08006d60                USART_ReceiveData
 .text.USART_SetAddress
                0x08006d68       0x18 obj\release\spl\src\stm32f4xx_usart.o
                0x08006d68                USART_SetAddress
 .text.USART_ReceiverWakeUpCmd
                0x08006d80       0x1c obj\release\spl\src\stm32f4xx_usart.o
                0x08006d80                USART_ReceiverWakeUpCmd
 .text.USART_WakeUpConfig
                0x08006d9c       0x18 obj\release\spl\src\stm32f4xx_usart.o
                0x08006d9c                USART_WakeUpConfig
 .text.USART_LINBreakDetectLengthConfig
                0x08006db4       0x18 obj\release\spl\src\stm32f4xx_usart.o
                0x08006db4                USART_LINBreakDetectLengthConfig
 .text.USART_LINCmd
                0x08006dcc       0x1c obj\release\spl\src\stm32f4xx_usart.o
                0x08006dcc                USART_LINCmd
 .text.USART_SendBreak
                0x08006de8        0xc obj\release\spl\src\stm32f4xx_usart.o
                0x08006de8                USART_SendBreak
 .text.USART_HalfDuplexCmd
                0x08006df4       0x1c obj\release\spl\src\stm32f4xx_usart.o
                0x08006df4                USART_HalfDuplexCmd
 .text.USART_SetGuardTime
                0x08006e10       0x14 obj\release\spl\src\stm32f4xx_usart.o
                0x08006e10                USART_SetGuardTime
 .text.USART_SmartCardCmd
                0x08006e24       0x1c obj\release\spl\src\stm32f4xx_usart.o
                0x08006e24                USART_SmartCardCmd
 .text.USART_SmartCardNACKCmd
                0x08006e40       0x1c obj\release\spl\src\stm32f4xx_usart.o
                0x08006e40                USART_SmartCardNACKCmd
 .text.USART_IrDAConfig
                0x08006e5c       0x18 obj\release\spl\src\stm32f4xx_usart.o
                0x08006e5c                USART_IrDAConfig
 .text.USART_IrDACmd
                0x08006e74       0x1c obj\release\spl\src\stm32f4xx_usart.o
                0x08006e74                USART_IrDACmd
 .text.USART_DMACmd
                0x08006e90       0x14 obj\release\spl\src\stm32f4xx_usart.o
                0x08006e90                USART_DMACmd
 .text.USART_ITConfig
                0x08006ea4       0x3c obj\release\spl\src\stm32f4xx_usart.o
                0x08006ea4                USART_ITConfig
 .text.USART_GetFlagStatus
                0x08006ee0        0xc obj\release\spl\src\stm32f4xx_usart.o
                0x08006ee0                USART_GetFlagStatus
 .text.USART_ClearFlag
                0x08006eec        0x8 obj\release\spl\src\stm32f4xx_usart.o
                0x08006eec                USART_ClearFlag
 .text.USART_GetITStatus
                0x08006ef4       0x4c obj\release\spl\src\stm32f4xx_usart.o
                0x08006ef4                USART_GetITStatus
 .text.USART_ClearITPendingBit
                0x08006f40       0x10 obj\release\spl\src\stm32f4xx_usart.o
                0x08006f40                USART_ClearITPendingBit
 .text          0x08006f50        0x0 obj\release\spl\src\stm32f4xx_wwdg.o
 .text.WWDG_DeInit
                0x08006f50       0x1c obj\release\spl\src\stm32f4xx_wwdg.o
                0x08006f50                WWDG_DeInit
 .text.WWDG_SetPrescaler
                0x08006f6c       0x14 obj\release\spl\src\stm32f4xx_wwdg.o
                0x08006f6c                WWDG_SetPrescaler
 .text.WWDG_SetWindowValue
                0x08006f80       0x28 obj\release\spl\src\stm32f4xx_wwdg.o
                0x08006f80                WWDG_SetWindowValue
 .text.WWDG_EnableIT
                0x08006fa8        0xc obj\release\spl\src\stm32f4xx_wwdg.o
                0x08006fa8                WWDG_EnableIT
 .text.WWDG_SetCounter
                0x08006fb4       0x10 obj\release\spl\src\stm32f4xx_wwdg.o
                0x08006fb4                WWDG_SetCounter
 .text.WWDG_Enable
                0x08006fc4       0x10 obj\release\spl\src\stm32f4xx_wwdg.o
                0x08006fc4                WWDG_Enable
 .text.WWDG_GetFlagStatus
                0x08006fd4       0x10 obj\release\spl\src\stm32f4xx_wwdg.o
                0x08006fd4                WWDG_GetFlagStatus
 .text.WWDG_ClearFlag
                0x08006fe4        0xc obj\release\spl\src\stm32f4xx_wwdg.o
                0x08006fe4                WWDG_ClearFlag
 .text          0x08006ff0        0x0 obj\release\src\filter_audio_segnal.o
 .text          0x08006ff0        0x0 obj\release\src\filter_noise_reduction.o
 .text.processing_noise_reduction
                0x08006ff0      0x530 obj\release\src\filter_noise_reduction.o
                0x08006ff0                processing_noise_reduction
 .text.doToneDetect
                0x08007520       0x34 obj\release\src\filter_noise_reduction.o
                0x08007520                doToneDetect
 .text          0x08007554        0x0 obj\release\src\io_audio.o
 .text.ADC1_CH6_DMA_Config
                0x08007554      0x134 obj\release\src\io_audio.o
                0x08007554                ADC1_CH6_DMA_Config
 .text.TIM2_Config
                0x08007688       0x4c obj\release\src\io_audio.o
                0x08007688                TIM2_Config
 .text.DAC1_Config
                0x080076d4       0xe0 obj\release\src\io_audio.o
                0x080076d4                DAC1_Config
 .text          0x080077b4        0x0 obj\release\src\io_display.o
 .text.fillDisplay.part.0
                0x080077b4       0xc4 obj\release\src\io_display.o
 .text.initializeDisplay
                0x08007878      0x190 obj\release\src\io_display.o
                0x08007878                initializeDisplay
 .text.fillDisplay
                0x08007a08       0x74 obj\release\src\io_display.o
                0x08007a08                fillDisplay
 .text.GPIO_Switch_Setup
                0x08007a7c       0x30 obj\release\src\io_display.o
                0x08007a7c                GPIO_Switch_Setup
 .text.DrawSpectrumPoints
                0x08007aac       0x2c obj\release\src\io_display.o
                0x08007aac                DrawSpectrumPoints
 .text.DrawWaterfallPoints
                0x08007ad8       0x70 obj\release\src\io_display.o
                0x08007ad8                DrawWaterfallPoints
 .text.decodeMenuValue
                0x08007b48      0x48c obj\release\src\io_display.o
                0x08007b48                decodeMenuValue
 .text.printDisplayValues
                0x08007fd4       0x34 obj\release\src\io_display.o
                0x08007fd4                printDisplayValues
 .text.printDisplayString
                0x08008008       0x1c obj\release\src\io_display.o
                0x08008008                printDisplayString
 .text.decodeMenuVoice
                0x08008024      0x100 obj\release\src\io_display.o
                0x08008024                decodeMenuVoice
 .text.TIM3_Config
                0x08008124       0x64 obj\release\src\io_display.o
                0x08008124                TIM3_Config
 .text.TIM5_Config
                0x08008188       0x64 obj\release\src\io_display.o
                0x08008188                TIM5_Config
 .text.showMorseChar
                0x080081ec       0xbc obj\release\src\io_display.o
                0x080081ec                showMorseChar
 .text.clearMorseDispaly
                0x080082a8       0x70 obj\release\src\io_display.o
                0x080082a8                clearMorseDispaly
 .text.logoDispaly
                0x08008318       0x84 obj\release\src\io_display.o
                0x08008318                logoDispaly
 .text          0x0800839c        0x0 obj\release\src\main.o
 .text.millis   0x0800839c        0xc obj\release\src\main.o
                0x0800839c                millis
 .text.TIM5_IRQHandler
                0x080083a8       0x20 obj\release\src\main.o
                0x080083a8                TIM5_IRQHandler
 .text.startup.main
                0x080083c8       0xd4 obj\release\src\main.o
                0x080083c8                main
 .text.TM_EXTI_Handler
                0x0800849c       0x14 obj\release\src\main.o
                0x0800849c                TM_EXTI_Handler
 .text.DMA2_Stream0_IRQHandler
                0x080084b0       0xc8 obj\release\src\main.o
                0x080084b0                DMA2_Stream0_IRQHandler
 .text.spectrumScope
                0x08008578       0x94 obj\release\src\main.o
                0x08008578                spectrumScope
 .text.waterfallScope
                0x0800860c       0x80 obj\release\src\main.o
                0x0800860c                waterfallScope
 .text.TIM3_IRQHandler
                0x0800868c      0x198 obj\release\src\main.o
                0x0800868c                TIM3_IRQHandler
 .text          0x08008824        0x0 obj\release\src\morsedecode.o
 .text.printPunctuation
                0x08008824       0x94 obj\release\src\morsedecode.o
                0x08008824                printPunctuation
 .text.printCharacter
                0x080088b8       0xac obj\release\src\morsedecode.o
                0x080088b8                printCharacter
 .text.printSpace
                0x08008964       0x10 obj\release\src\morsedecode.o
                0x08008964                printSpace
 .text.shiftBits
                0x08008974       0x70 obj\release\src\morsedecode.o
                0x08008974                shiftBits
 .text.morseKeyDown
                0x080089e4       0x48 obj\release\src\morsedecode.o
                0x080089e4                morseKeyDown
 .text.morseKeyUp
                0x08008a2c      0x194 obj\release\src\morsedecode.o
                0x08008a2c                morseKeyUp
 .text.initializeDecoder
                0x08008bc0       0xac obj\release\src\morsedecode.o
                0x08008bc0                initializeDecoder
 .text          0x08008c6c      0x108 obj\release\src\startup_stm32f4xx.o
                0x08008c6c                Reset_Handler
                0x08008cb2                NMI_Handler
                0x08008cb4                HardFault_Handler
                0x08008cb6                MemManage_Handler
                0x08008cb8                BusFault_Handler
                0x08008cba                UsageFault_Handler
                0x08008cbc                SVC_Handler
                0x08008cbe                DebugMon_Handler
                0x08008cc0                PendSV_Handler
                0x08008cc2                SysTick_Handler
                0x08008cc4                Default_Handler
                0x08008cc6                WWDG_IRQHandler
                0x08008cc8                PVD_IRQHandler
                0x08008cca                TAMP_STAMP_IRQHandler
                0x08008ccc                RTC_WKUP_IRQHandler
                0x08008cce                FLASH_IRQHandler
                0x08008cd0                RCC_IRQHandler
                0x08008cdc                DMA1_Stream0_IRQHandler
                0x08008cde                DMA1_Stream1_IRQHandler
                0x08008ce0                DMA1_Stream2_IRQHandler
                0x08008ce2                DMA1_Stream3_IRQHandler
                0x08008ce4                DMA1_Stream4_IRQHandler
                0x08008ce6                DMA1_Stream5_IRQHandler
                0x08008ce8                DMA1_Stream6_IRQHandler
                0x08008cea                ADC_IRQHandler
                0x08008cec                CAN1_TX_IRQHandler
                0x08008cee                CAN1_RX0_IRQHandler
                0x08008cf0                CAN1_RX1_IRQHandler
                0x08008cf2                CAN1_SCE_IRQHandler
                0x08008cf6                TIM1_BRK_TIM9_IRQHandler
                0x08008cf8                TIM1_UP_TIM10_IRQHandler
                0x08008cfa                TIM1_TRG_COM_TIM11_IRQHandler
                0x08008cfc                TIM1_CC_IRQHandler
                0x08008cfe                TIM2_IRQHandler
                0x08008d02                TIM4_IRQHandler
                0x08008d04                I2C1_EV_IRQHandler
                0x08008d06                I2C1_ER_IRQHandler
                0x08008d08                I2C2_EV_IRQHandler
                0x08008d0a                I2C2_ER_IRQHandler
                0x08008d0c                SPI1_IRQHandler
                0x08008d0e                SPI2_IRQHandler
                0x08008d10                USART1_IRQHandler
                0x08008d12                USART2_IRQHandler
                0x08008d14                USART3_IRQHandler
                0x08008d18                RTC_Alarm_IRQHandler
                0x08008d1a                OTG_FS_WKUP_IRQHandler
                0x08008d1c                TIM8_BRK_TIM12_IRQHandler
                0x08008d1e                TIM8_UP_TIM13_IRQHandler
                0x08008d20                TIM8_TRG_COM_TIM14_IRQHandler
                0x08008d22                TIM8_CC_IRQHandler
                0x08008d24                DMA1_Stream7_IRQHandler
                0x08008d26                FSMC_IRQHandler
                0x08008d28                SDIO_IRQHandler
                0x08008d2c                SPI3_IRQHandler
                0x08008d2e                UART4_IRQHandler
                0x08008d30                UART5_IRQHandler
                0x08008d32                TIM6_DAC_IRQHandler
                0x08008d34                TIM7_IRQHandler
                0x08008d38                DMA2_Stream1_IRQHandler
                0x08008d3a                DMA2_Stream2_IRQHandler
                0x08008d3c                DMA2_Stream3_IRQHandler
                0x08008d3e                DMA2_Stream4_IRQHandler
                0x08008d40                ETH_IRQHandler
                0x08008d42                ETH_WKUP_IRQHandler
                0x08008d44                CAN2_TX_IRQHandler
                0x08008d46                CAN2_RX0_IRQHandler
                0x08008d48                CAN2_RX1_IRQHandler
                0x08008d4a                CAN2_SCE_IRQHandler
                0x08008d4c                OTG_FS_IRQHandler
                0x08008d4e                DMA2_Stream5_IRQHandler
                0x08008d50                DMA2_Stream6_IRQHandler
                0x08008d52                DMA2_Stream7_IRQHandler
                0x08008d54                USART6_IRQHandler
                0x08008d56                I2C3_EV_IRQHandler
                0x08008d58                I2C3_ER_IRQHandler
                0x08008d5a                OTG_HS_EP1_OUT_IRQHandler
                0x08008d5c                OTG_HS_EP1_IN_IRQHandler
                0x08008d5e                OTG_HS_WKUP_IRQHandler
                0x08008d60                OTG_HS_IRQHandler
                0x08008d62                DCMI_IRQHandler
                0x08008d64                CRYP_IRQHandler
                0x08008d66                HASH_RNG_IRQHandler
                0x08008d68                FPU_IRQHandler
 .text          0x08008d74        0x0 obj\release\src\system_stm32f4xx.o
 .text.SystemInit
                0x08008d74      0x100 obj\release\src\system_stm32f4xx.o
                0x08008d74                SystemInit
 .text.SystemCoreClockUpdate
                0x08008e74       0x78 obj\release\src\system_stm32f4xx.o
                0x08008e74                SystemCoreClockUpdate
 .text          0x08008eec        0x0 obj\release\src\tm_enc\tm_stm32f4_exti.o
 .text.TM_EXTI_Attach
                0x08008eec      0x328 obj\release\src\tm_enc\tm_stm32f4_exti.o
                0x08008eec                TM_EXTI_Attach
 .text.TM_EXTI_Detach
                0x08009214       0x24 obj\release\src\tm_enc\tm_stm32f4_exti.o
                0x08009214                TM_EXTI_Detach
 .text.TM_EXTI_DeInit
                0x08009238       0x30 obj\release\src\tm_enc\tm_stm32f4_exti.o
                0x08009238                TM_EXTI_DeInit
 .text.EXTI0_IRQHandler
                0x08009268       0x18 obj\release\src\tm_enc\tm_stm32f4_exti.o
                0x08009268                EXTI0_IRQHandler
 .text.EXTI1_IRQHandler
                0x08009280       0x18 obj\release\src\tm_enc\tm_stm32f4_exti.o
                0x08009280                EXTI1_IRQHandler
 .text.EXTI2_IRQHandler
                0x08009298       0x18 obj\release\src\tm_enc\tm_stm32f4_exti.o
                0x08009298                EXTI2_IRQHandler
 .text.EXTI3_IRQHandler
                0x080092b0       0x18 obj\release\src\tm_enc\tm_stm32f4_exti.o
                0x080092b0                EXTI3_IRQHandler
 .text.EXTI4_IRQHandler
                0x080092c8       0x18 obj\release\src\tm_enc\tm_stm32f4_exti.o
                0x080092c8                EXTI4_IRQHandler
 .text.EXTI9_5_IRQHandler
                0x080092e0       0x64 obj\release\src\tm_enc\tm_stm32f4_exti.o
                0x080092e0                EXTI9_5_IRQHandler
 .text.EXTI15_10_IRQHandler
                0x08009344       0x80 obj\release\src\tm_enc\tm_stm32f4_exti.o
                0x08009344                EXTI15_10_IRQHandler
 .text          0x080093c4        0x0 obj\release\src\tm_enc\tm_stm32f4_rotary_encoder.o
 .text.TM_RE_Init
                0x080093c4       0x40 obj\release\src\tm_enc\tm_stm32f4_rotary_encoder.o
                0x080093c4                TM_RE_Init
 .text.TM_RE_Get
                0x08009404       0x24 obj\release\src\tm_enc\tm_stm32f4_rotary_encoder.o
                0x08009404                TM_RE_Get
 .text.TM_RE_SetMode
                0x08009428        0x4 obj\release\src\tm_enc\tm_stm32f4_rotary_encoder.o
                0x08009428                TM_RE_SetMode
 .text.TM_RE_Process
                0x0800942c       0x44 obj\release\src\tm_enc\tm_stm32f4_rotary_encoder.o
                0x0800942c                TM_RE_Process
 .text          0x08009470        0x0 obj\release\src\tm_spi\tm_stm32f4_disco.o
 .text.TM_DISCO_LedInit
                0x08009470       0x24 obj\release\src\tm_spi\tm_stm32f4_disco.o
                0x08009470                TM_DISCO_LedInit
 .text.TM_DISCO_ButtonInit
                0x08009494       0x20 obj\release\src\tm_spi\tm_stm32f4_disco.o
                0x08009494                TM_DISCO_ButtonInit
 .text.TM_DISCO_ButtonOnPressed
                0x080094b4       0x2c obj\release\src\tm_spi\tm_stm32f4_disco.o
                0x080094b4                TM_DISCO_ButtonOnPressed
 .text.TM_DISCO_ButtonOnReleased
                0x080094e0       0x2c obj\release\src\tm_spi\tm_stm32f4_disco.o
                0x080094e0                TM_DISCO_ButtonOnReleased
 .text          0x0800950c        0x0 obj\release\src\tm_spi\tm_stm32f4_fonts.o
 .text          0x0800950c        0x0 obj\release\src\tm_spi\tm_stm32f4_gpio.o
 .text.TM_GPIO_Init
                0x0800950c       0xf4 obj\release\src\tm_spi\tm_stm32f4_gpio.o
                0x0800950c                TM_GPIO_Init
 .text.TM_GPIO_InitAlternate
                0x08009600      0x144 obj\release\src\tm_spi\tm_stm32f4_gpio.o
                0x08009600                TM_GPIO_InitAlternate
 .text.TM_GPIO_DeInit
                0x08009744       0xc4 obj\release\src\tm_spi\tm_stm32f4_gpio.o
                0x08009744                TM_GPIO_DeInit
 .text.TM_GPIO_SetPinAsInput
                0x08009808       0xc4 obj\release\src\tm_spi\tm_stm32f4_gpio.o
                0x08009808                TM_GPIO_SetPinAsInput
 .text.TM_GPIO_SetPinAsOutput
                0x080098cc      0x104 obj\release\src\tm_spi\tm_stm32f4_gpio.o
                0x080098cc                TM_GPIO_SetPinAsOutput
 .text.TM_GPIO_GetPortSource
                0x080099d0       0x6c obj\release\src\tm_spi\tm_stm32f4_gpio.o
                0x080099d0                TM_GPIO_GetPortSource
 .text.TM_GPIO_GetPinSource
                0x08009a3c       0x18 obj\release\src\tm_spi\tm_stm32f4_gpio.o
                0x08009a3c                TM_GPIO_GetPinSource
 .text.TM_GPIO_INT_DisableClock
                0x08009a54       0xd0 obj\release\src\tm_spi\tm_stm32f4_gpio.o
                0x08009a54                TM_GPIO_INT_DisableClock
 .text          0x08009b24        0x0 obj\release\src\tm_spi\tm_stm32f4_ili9341.o
 .text.TM_ILI9341_InitLCD
                0x08009b24     0x1248 obj\release\src\tm_spi\tm_stm32f4_ili9341.o
                0x08009b24                TM_ILI9341_InitLCD
 .text.TM_ILI9341_Init
                0x0800ad6c      0x30c obj\release\src\tm_spi\tm_stm32f4_ili9341.o
                0x0800ad6c                TM_ILI9341_Init
 .text.TM_ILI9341_DisplayOn
                0x0800b078       0x40 obj\release\src\tm_spi\tm_stm32f4_ili9341.o
                0x0800b078                TM_ILI9341_DisplayOn
 .text.TM_ILI9341_DisplayOff
                0x0800b0b8       0x40 obj\release\src\tm_spi\tm_stm32f4_ili9341.o
                0x0800b0b8                TM_ILI9341_DisplayOff
 .text.TM_ILI9341_SendCommand
                0x0800b0f8       0x44 obj\release\src\tm_spi\tm_stm32f4_ili9341.o
                0x0800b0f8                TM_ILI9341_SendCommand
 .text.TM_ILI9341_SendData
                0x0800b13c       0x44 obj\release\src\tm_spi\tm_stm32f4_ili9341.o
                0x0800b13c                TM_ILI9341_SendData
 .text.TM_ILI9341_DrawPixel
                0x0800b180      0x288 obj\release\src\tm_spi\tm_stm32f4_ili9341.o
                0x0800b180                TM_ILI9341_DrawPixel
 .text.TM_ILI9341_SetCursorPosition
                0x0800b408      0x200 obj\release\src\tm_spi\tm_stm32f4_ili9341.o
                0x0800b408                TM_ILI9341_SetCursorPosition
 .text.TM_ILI9341_Fill
                0x0800b608      0x2b4 obj\release\src\tm_spi\tm_stm32f4_ili9341.o
                0x0800b608                TM_ILI9341_Fill
 .text.TM_ILI9341_Delay
                0x0800b8bc       0x18 obj\release\src\tm_spi\tm_stm32f4_ili9341.o
                0x0800b8bc                TM_ILI9341_Delay
 .text.TM_ILI9341_Rotate
                0x0800b8d4      0x128 obj\release\src\tm_spi\tm_stm32f4_ili9341.o
                0x0800b8d4                TM_ILI9341_Rotate
 .text.TM_ILI9341_GetStringSize
                0x0800b9fc       0x24 obj\release\src\tm_spi\tm_stm32f4_ili9341.o
                0x0800b9fc                TM_ILI9341_GetStringSize
 .text.TM_ILI9341_Putc
                0x0800ba20      0x5a0 obj\release\src\tm_spi\tm_stm32f4_ili9341.o
                0x0800ba20                TM_ILI9341_Putc
 .text.TM_ILI9341_Puts
                0x0800bfc0       0x70 obj\release\src\tm_spi\tm_stm32f4_ili9341.o
                0x0800bfc0                TM_ILI9341_Puts
 .text.TM_ILI9341_DrawLine
                0x0800c030      0x3cc obj\release\src\tm_spi\tm_stm32f4_ili9341.o
                0x0800c030                TM_ILI9341_DrawLine
 .text.TM_ILI9341_DrawRectangle
                0x0800c3fc       0x48 obj\release\src\tm_spi\tm_stm32f4_ili9341.o
                0x0800c3fc                TM_ILI9341_DrawRectangle
 .text.TM_ILI9341_DrawFilledRectangle
                0x0800c444       0x30 obj\release\src\tm_spi\tm_stm32f4_ili9341.o
                0x0800c444                TM_ILI9341_DrawFilledRectangle
 .text.TM_ILI9341_DrawCircle
                0x0800c474     0x1494 obj\release\src\tm_spi\tm_stm32f4_ili9341.o
                0x0800c474                TM_ILI9341_DrawCircle
 .text.TM_ILI9341_DrawFilledCircle
                0x0800d908      0x13c obj\release\src\tm_spi\tm_stm32f4_ili9341.o
                0x0800d908                TM_ILI9341_DrawFilledCircle
 .text          0x0800da44        0x0 obj\release\src\tm_spi\tm_stm32f4_spi.o
 .text.TM_SPI_GetPrescalerFromMaxFrequency
                0x0800da44       0x7c obj\release\src\tm_spi\tm_stm32f4_spi.o
                0x0800da44                TM_SPI_GetPrescalerFromMaxFrequency
 .text.TM_SPI_SetDataSize
                0x0800dac0       0x3c obj\release\src\tm_spi\tm_stm32f4_spi.o
                0x0800dac0                TM_SPI_SetDataSize
 .text.TM_SPI_SendMulti
                0x0800dafc       0x3c obj\release\src\tm_spi\tm_stm32f4_spi.o
                0x0800dafc                TM_SPI_SendMulti
 .text.TM_SPI_WriteMulti
                0x0800db38       0x30 obj\release\src\tm_spi\tm_stm32f4_spi.o
                0x0800db38                TM_SPI_WriteMulti
 .text.TM_SPI_ReadMulti
                0x0800db68       0x38 obj\release\src\tm_spi\tm_stm32f4_spi.o
                0x0800db68                TM_SPI_ReadMulti
 .text.TM_SPI_SendMulti16
                0x0800dba0       0x40 obj\release\src\tm_spi\tm_stm32f4_spi.o
                0x0800dba0                TM_SPI_SendMulti16
 .text.TM_SPI_WriteMulti16
                0x0800dbe0       0x34 obj\release\src\tm_spi\tm_stm32f4_spi.o
                0x0800dbe0                TM_SPI_WriteMulti16
 .text.TM_SPI_ReadMulti16
                0x0800dc14       0x38 obj\release\src\tm_spi\tm_stm32f4_spi.o
                0x0800dc14                TM_SPI_ReadMulti16
 .text.TM_SPI_InitCustomPinsCallback
                0x0800dc4c        0x4 obj\release\src\tm_spi\tm_stm32f4_spi.o
                0x0800dc4c                TM_SPI_InitCustomPinsCallback
 .text.TM_SPI_Init
                0x0800dc50      0x1d0 obj\release\src\tm_spi\tm_stm32f4_spi.o
                0x0800dc50                TM_SPI_Init
 .text.TM_SPI_InitWithMode
                0x0800de20      0x2d0 obj\release\src\tm_spi\tm_stm32f4_spi.o
                0x0800de20                TM_SPI_InitWithMode
 .text.TM_SPI_InitFull
                0x0800e0f0      0x2cc obj\release\src\tm_spi\tm_stm32f4_spi.o
                0x0800e0f0                TM_SPI_InitFull
 .text.TM_SPI1_INT_InitPins
                0x0800e3bc       0x64 obj\release\src\tm_spi\tm_stm32f4_spi.o
                0x0800e3bc                TM_SPI1_INT_InitPins
 .text.TM_SPI2_INT_InitPins
                0x0800e420       0x8c obj\release\src\tm_spi\tm_stm32f4_spi.o
                0x0800e420                TM_SPI2_INT_InitPins
 .text.TM_SPI3_INT_InitPins
                0x0800e4ac       0x68 obj\release\src\tm_spi\tm_stm32f4_spi.o
                0x0800e4ac                TM_SPI3_INT_InitPins
 .text          0x0800e514        0x0 ..\CMSIS-4.5.0\CMSIS-4.5.0\CMSIS\Lib\GCC\libarm_cortexM4lf_math.a(arm_const_structs.o)
 .text          0x0800e514        0x0 ..\CMSIS-4.5.0\CMSIS-4.5.0\CMSIS\Lib\GCC\libarm_cortexM4lf_math.a(arm_common_tables.o)
 .text          0x0800e514        0x0 ..\CMSIS-4.5.0\CMSIS-4.5.0\CMSIS\Lib\GCC\libarm_cortexM4lf_math.a(arm_q15_to_float.o)
 .text.arm_q15_to_float
                0x0800e514       0xa0 ..\CMSIS-4.5.0\CMSIS-4.5.0\CMSIS\Lib\GCC\libarm_cortexM4lf_math.a(arm_q15_to_float.o)
                0x0800e514                arm_q15_to_float
 .text          0x0800e5b4        0x0 ..\CMSIS-4.5.0\CMSIS-4.5.0\CMSIS\Lib\GCC\libarm_cortexM4lf_math.a(arm_float_to_q15.o)
 .text.arm_float_to_q15
                0x0800e5b4      0x130 ..\CMSIS-4.5.0\CMSIS-4.5.0\CMSIS\Lib\GCC\libarm_cortexM4lf_math.a(arm_float_to_q15.o)
                0x0800e5b4                arm_float_to_q15
 .text          0x0800e6e4        0x0 ..\CMSIS-4.5.0\CMSIS-4.5.0\CMSIS\Lib\GCC\libarm_cortexM4lf_math.a(arm_max_f32.o)
 .text.arm_max_f32
                0x0800e6e4       0xd0 ..\CMSIS-4.5.0\CMSIS-4.5.0\CMSIS\Lib\GCC\libarm_cortexM4lf_math.a(arm_max_f32.o)
                0x0800e6e4                arm_max_f32
 .text          0x0800e7b4        0x0 ..\CMSIS-4.5.0\CMSIS-4.5.0\CMSIS\Lib\GCC\libarm_cortexM4lf_math.a(arm_cfft_f32.o)
 .text.arm_cfft_radix8by2_f32
                0x0800e7b4      0x1a4 ..\CMSIS-4.5.0\CMSIS-4.5.0\CMSIS\Lib\GCC\libarm_cortexM4lf_math.a(arm_cfft_f32.o)
                0x0800e7b4                arm_cfft_radix8by2_f32
 .text.arm_cfft_radix8by4_f32
                0x0800e958      0x4bc ..\CMSIS-4.5.0\CMSIS-4.5.0\CMSIS\Lib\GCC\libarm_cortexM4lf_math.a(arm_cfft_f32.o)
                0x0800e958                arm_cfft_radix8by4_f32
 .text.arm_cfft_f32
                0x0800ee14       0xf4 ..\CMSIS-4.5.0\CMSIS-4.5.0\CMSIS\Lib\GCC\libarm_cortexM4lf_math.a(arm_cfft_f32.o)
                0x0800ee14                arm_cfft_f32
 .text          0x0800ef08        0x0 ..\CMSIS-4.5.0\CMSIS-4.5.0\CMSIS\Lib\GCC\libarm_cortexM4lf_math.a(arm_lms_init_f32.o)
 .text.arm_lms_init_f32
                0x0800ef08       0x34 ..\CMSIS-4.5.0\CMSIS-4.5.0\CMSIS\Lib\GCC\libarm_cortexM4lf_math.a(arm_lms_init_f32.o)
                0x0800ef08                arm_lms_init_f32
 .text          0x0800ef3c        0x0 ..\CMSIS-4.5.0\CMSIS-4.5.0\CMSIS\Lib\GCC\libarm_cortexM4lf_math.a(arm_lms_f32.o)
 .text.arm_lms_f32
                0x0800ef3c      0x204 ..\CMSIS-4.5.0\CMSIS-4.5.0\CMSIS\Lib\GCC\libarm_cortexM4lf_math.a(arm_lms_f32.o)
                0x0800ef3c                arm_lms_f32
 .text          0x0800f140        0x0 ..\CMSIS-4.5.0\CMSIS-4.5.0\CMSIS\Lib\GCC\libarm_cortexM4lf_math.a(arm_fir_init_f32.o)
 .text.arm_fir_init_f32
                0x0800f140       0x24 ..\CMSIS-4.5.0\CMSIS-4.5.0\CMSIS\Lib\GCC\libarm_cortexM4lf_math.a(arm_fir_init_f32.o)
                0x0800f140                arm_fir_init_f32
 .text          0x0800f164        0x0 ..\CMSIS-4.5.0\CMSIS-4.5.0\CMSIS\Lib\GCC\libarm_cortexM4lf_math.a(arm_fir_f32.o)
 .text.arm_fir_f32
                0x0800f164      0x4c8 ..\CMSIS-4.5.0\CMSIS-4.5.0\CMSIS\Lib\GCC\libarm_cortexM4lf_math.a(arm_fir_f32.o)
                0x0800f164                arm_fir_f32
 .text          0x0800f62c        0x0 ..\CMSIS-4.5.0\CMSIS-4.5.0\CMSIS\Lib\GCC\libarm_cortexM4lf_math.a(arm_cmplx_mag_f32.o)
 .text.arm_cmplx_mag_f32
                0x0800f62c      0x1d0 ..\CMSIS-4.5.0\CMSIS-4.5.0\CMSIS\Lib\GCC\libarm_cortexM4lf_math.a(arm_cmplx_mag_f32.o)
                0x0800f62c                arm_cmplx_mag_f32
 .text          0x0800f7fc        0x0 ..\CMSIS-4.5.0\CMSIS-4.5.0\CMSIS\Lib\GCC\libarm_cortexM4lf_math.a(arm_sin_f32.o)
 .text.arm_sin_f32
                0x0800f7fc       0x88 ..\CMSIS-4.5.0\CMSIS-4.5.0\CMSIS\Lib\GCC\libarm_cortexM4lf_math.a(arm_sin_f32.o)
                0x0800f7fc                arm_sin_f32
 .text          0x0800f884        0x0 ..\CMSIS-4.5.0\CMSIS-4.5.0\CMSIS\Lib\GCC\libarm_cortexM4lf_math.a(arm_cos_f32.o)
 .text.arm_cos_f32
                0x0800f884       0x80 ..\CMSIS-4.5.0\CMSIS-4.5.0\CMSIS\Lib\GCC\libarm_cortexM4lf_math.a(arm_cos_f32.o)
                0x0800f884                arm_cos_f32
 .text          0x0800f904       0xc0 ..\CMSIS-4.5.0\CMSIS-4.5.0\CMSIS\Lib\GCC\libarm_cortexM4lf_math.a(arm_bitreversal2.o)
                0x0800f904                arm_bitreversal_32
                0x0800f96e                arm_bitreversal_16
 .text          0x0800f9c4        0x0 ..\CMSIS-4.5.0\CMSIS-4.5.0\CMSIS\Lib\GCC\libarm_cortexM4lf_math.a(arm_cfft_radix8_f32.o)
 .text.arm_radix8_butterfly_f32
                0x0800f9c4      0x5c4 ..\CMSIS-4.5.0\CMSIS-4.5.0\CMSIS\Lib\GCC\libarm_cortexM4lf_math.a(arm_cfft_radix8_f32.o)
                0x0800f9c4                arm_radix8_butterfly_f32
 .text          0x0800ff88        0x0 c:/program files (x86)/embitz/1.11/share/em_armgcc/bin/../lib/gcc/arm-none-eabi/5.4.1/../../../../arm-none-eabi/lib/armv7e-m/fpu\libm.a(lib_a-cargf.o)
 .text.cargf    0x0800ff88       0x38 c:/program files (x86)/embitz/1.11/share/em_armgcc/bin/../lib/gcc/arm-none-eabi/5.4.1/../../../../arm-none-eabi/lib/armv7e-m/fpu\libm.a(lib_a-cargf.o)
                0x0800ff88                cargf
 .text          0x0800ffc0        0x0 c:/program files (x86)/embitz/1.11/share/em_armgcc/bin/../lib/gcc/arm-none-eabi/5.4.1/../../../../arm-none-eabi/lib/armv7e-m/fpu\libm.a(lib_a-cimagf.o)
 .text.cimagf   0x0800ffc0        0xc c:/program files (x86)/embitz/1.11/share/em_armgcc/bin/../lib/gcc/arm-none-eabi/5.4.1/../../../../arm-none-eabi/lib/armv7e-m/fpu\libm.a(lib_a-cimagf.o)
                0x0800ffc0                cimagf
 .text          0x0800ffcc        0x0 c:/program files (x86)/embitz/1.11/share/em_armgcc/bin/../lib/gcc/arm-none-eabi/5.4.1/../../../../arm-none-eabi/lib/armv7e-m/fpu\libm.a(lib_a-crealf.o)
 .text.crealf   0x0800ffcc        0x8 c:/program files (x86)/embitz/1.11/share/em_armgcc/bin/../lib/gcc/arm-none-eabi/5.4.1/../../../../arm-none-eabi/lib/armv7e-m/fpu\libm.a(lib_a-crealf.o)
                0x0800ffcc                crealf
 .text          0x0800ffd4        0x0 c:/program files (x86)/embitz/1.11/share/em_armgcc/bin/../lib/gcc/arm-none-eabi/5.4.1/../../../../arm-none-eabi/lib/armv7e-m/fpu\libm.a(lib_a-wf_atan2.o)
 .text.atan2f   0x0800ffd4        0x4 c:/program files (x86)/embitz/1.11/share/em_armgcc/bin/../lib/gcc/arm-none-eabi/5.4.1/../../../../arm-none-eabi/lib/armv7e-m/fpu\libm.a(lib_a-wf_atan2.o)
                0x0800ffd4                atan2f
 .text          0x0800ffd8        0x0 c:/program files (x86)/embitz/1.11/share/em_armgcc/bin/../lib/gcc/arm-none-eabi/5.4.1/../../../../arm-none-eabi/lib/armv7e-m/fpu\libm.a(lib_a-wf_sqrt.o)
 .text.sqrtf    0x0800ffd8       0xac c:/program files (x86)/embitz/1.11/share/em_armgcc/bin/../lib/gcc/arm-none-eabi/5.4.1/../../../../arm-none-eabi/lib/armv7e-m/fpu\libm.a(lib_a-wf_sqrt.o)
                0x0800ffd8                sqrtf
 .text          0x08010084        0x0 c:/program files (x86)/embitz/1.11/share/em_armgcc/bin/../lib/gcc/arm-none-eabi/5.4.1/../../../../arm-none-eabi/lib/armv7e-m/fpu\libm.a(lib_a-ef_atan2.o)
 .text.__ieee754_atan2f
                0x08010084      0x16c c:/program files (x86)/embitz/1.11/share/em_armgcc/bin/../lib/gcc/arm-none-eabi/5.4.1/../../../../arm-none-eabi/lib/armv7e-m/fpu\libm.a(lib_a-ef_atan2.o)
                0x08010084                __ieee754_atan2f
 .text          0x080101f0        0x0 c:/program files (x86)/embitz/1.11/share/em_armgcc/bin/../lib/gcc/arm-none-eabi/5.4.1/../../../../arm-none-eabi/lib/armv7e-m/fpu\libm.a(lib_a-ef_sqrt.o)
 .text.__ieee754_sqrtf
                0x080101f0       0xa4 c:/program files (x86)/embitz/1.11/share/em_armgcc/bin/../lib/gcc/arm-none-eabi/5.4.1/../../../../arm-none-eabi/lib/armv7e-m/fpu\libm.a(lib_a-ef_sqrt.o)
                0x080101f0                __ieee754_sqrtf
 .text          0x08010294        0x0 c:/program files (x86)/embitz/1.11/share/em_armgcc/bin/../lib/gcc/arm-none-eabi/5.4.1/../../../../arm-none-eabi/lib/armv7e-m/fpu\libm.a(lib_a-s_lib_ver.o)
 .text          0x08010294        0x0 c:/program files (x86)/embitz/1.11/share/em_armgcc/bin/../lib/gcc/arm-none-eabi/5.4.1/../../../../arm-none-eabi/lib/armv7e-m/fpu\libm.a(lib_a-s_matherr.o)
 .text.matherr  0x08010294        0x4 c:/program files (x86)/embitz/1.11/share/em_armgcc/bin/../lib/gcc/arm-none-eabi/5.4.1/../../../../arm-none-eabi/lib/armv7e-m/fpu\libm.a(lib_a-s_matherr.o)
                0x08010294                matherr
 .text          0x08010298        0x0 c:/program files (x86)/embitz/1.11/share/em_armgcc/bin/../lib/gcc/arm-none-eabi/5.4.1/../../../../arm-none-eabi/lib/armv7e-m/fpu\libm.a(lib_a-sf_atan.o)
 .text.atanf    0x08010298      0x1b8 c:/program files (x86)/embitz/1.11/share/em_armgcc/bin/../lib/gcc/arm-none-eabi/5.4.1/../../../../arm-none-eabi/lib/armv7e-m/fpu\libm.a(lib_a-sf_atan.o)
                0x08010298                atanf
 .text          0x08010450        0x0 c:/program files (x86)/embitz/1.11/share/em_armgcc/bin/../lib/gcc/arm-none-eabi/5.4.1/../../../../arm-none-eabi/lib/armv7e-m/fpu\libm.a(lib_a-sf_fabs.o)
 .text.fabsf    0x08010450       0x10 c:/program files (x86)/embitz/1.11/share/em_armgcc/bin/../lib/gcc/arm-none-eabi/5.4.1/../../../../arm-none-eabi/lib/armv7e-m/fpu\libm.a(lib_a-sf_fabs.o)
                0x08010450                fabsf
 .text          0x08010460      0x370 c:/program files (x86)/embitz/1.11/share/em_armgcc/bin/../lib/gcc/arm-none-eabi/5.4.1/armv7e-m/fpu\libgcc.a(_arm_addsubdf3.o)
                0x08010460                __aeabi_drsub
                0x08010468                __aeabi_dsub
                0x08010468                __subdf3
                0x0801046c                __aeabi_dadd
                0x0801046c                __adddf3
                0x080106e4                __floatunsidf
                0x080106e4                __aeabi_ui2d
                0x08010704                __floatsidf
                0x08010704                __aeabi_i2d
                0x08010728                __aeabi_f2d
                0x08010728                __extendsfdf2
                0x08010764                __floatundidf
                0x08010764                __aeabi_ul2d
                0x08010774                __floatdidf
                0x08010774                __aeabi_l2d
 .text          0x080107d0      0x424 c:/program files (x86)/embitz/1.11/share/em_armgcc/bin/../lib/gcc/arm-none-eabi/5.4.1/armv7e-m/fpu\libgcc.a(_arm_muldivdf3.o)
                0x080107d0                __aeabi_dmul
                0x080107d0                __muldf3
                0x08010a24                __divdf3
                0x08010a24                __aeabi_ddiv
 .text          0x08010bf4       0xa0 c:/program files (x86)/embitz/1.11/share/em_armgcc/bin/../lib/gcc/arm-none-eabi/5.4.1/armv7e-m/fpu\libgcc.a(_arm_truncdfsf2.o)
                0x08010bf4                __truncdfsf2
                0x08010bf4                __aeabi_d2f
 .text          0x08010c94        0x0 c:/program files (x86)/embitz/1.11/share/em_armgcc/bin/../lib/gcc/arm-none-eabi/5.4.1/../../../../arm-none-eabi/lib/armv7e-m/fpu\libg_n.a(lib_a-errno.o)
 .text.__errno  0x08010c94        0xc c:/program files (x86)/embitz/1.11/share/em_armgcc/bin/../lib/gcc/arm-none-eabi/5.4.1/../../../../arm-none-eabi/lib/armv7e-m/fpu\libg_n.a(lib_a-errno.o)
                0x08010c94                __errno
 .text          0x08010ca0        0x0 c:/program files (x86)/embitz/1.11/share/em_armgcc/bin/../lib/gcc/arm-none-eabi/5.4.1/../../../../arm-none-eabi/lib/armv7e-m/fpu\libg_n.a(lib_a-exit.o)
 .text.exit     0x08010ca0       0x28 c:/program files (x86)/embitz/1.11/share/em_armgcc/bin/../lib/gcc/arm-none-eabi/5.4.1/../../../../arm-none-eabi/lib/armv7e-m/fpu\libg_n.a(lib_a-exit.o)
                0x08010ca0                exit
 .text          0x08010cc8        0x0 c:/program files (x86)/embitz/1.11/share/em_armgcc/bin/../lib/gcc/arm-none-eabi/5.4.1/../../../../arm-none-eabi/lib/armv7e-m/fpu\libg_n.a(lib_a-impure.o)
 .text          0x08010cc8        0x0 c:/program files (x86)/embitz/1.11/share/em_armgcc/bin/../lib/gcc/arm-none-eabi/5.4.1/../../../../arm-none-eabi/lib/armv7e-m/fpu\libg_n.a(lib_a-init.o)
 .text.__libc_init_array
                0x08010cc8       0x4c c:/program files (x86)/embitz/1.11/share/em_armgcc/bin/../lib/gcc/arm-none-eabi/5.4.1/../../../../arm-none-eabi/lib/armv7e-m/fpu\libg_n.a(lib_a-init.o)
                0x08010cc8                __libc_init_array
 .text          0x08010d14        0x0 c:/program files (x86)/embitz/1.11/share/em_armgcc/bin/../lib/gcc/arm-none-eabi/5.4.1/../../../../arm-none-eabi/lib/armv7e-m/fpu\libg_n.a(lib_a-memset.o)
 .text.memset   0x08010d14       0x10 c:/program files (x86)/embitz/1.11/share/em_armgcc/bin/../lib/gcc/arm-none-eabi/5.4.1/../../../../arm-none-eabi/lib/armv7e-m/fpu\libg_n.a(lib_a-memset.o)
                0x08010d14                memset
 .text          0x08010d24        0x0 c:/program files (x86)/embitz/1.11/share/em_armgcc/bin/../lib/gcc/arm-none-eabi/5.4.1/../../../../arm-none-eabi/lib/armv7e-m/fpu\libg_n.a(lib_a-sprintf.o)
 .text._sprintf_r
                0x08010d24       0x40 c:/program files (x86)/embitz/1.11/share/em_armgcc/bin/../lib/gcc/arm-none-eabi/5.4.1/../../../../arm-none-eabi/lib/armv7e-m/fpu\libg_n.a(lib_a-sprintf.o)
                0x08010d24                _sprintf_r
                0x08010d24                _siprintf_r
 .text.sprintf  0x08010d64       0x48 c:/program files (x86)/embitz/1.11/share/em_armgcc/bin/../lib/gcc/arm-none-eabi/5.4.1/../../../../arm-none-eabi/lib/armv7e-m/fpu\libg_n.a(lib_a-sprintf.o)
                0x08010d64                siprintf
                0x08010d64                sprintf
 .text          0x08010dac        0x0 c:/program files (x86)/embitz/1.11/share/em_armgcc/bin/../lib/gcc/arm-none-eabi/5.4.1/../../../../arm-none-eabi/lib/armv7e-m/fpu\libg_n.a(lib_a-nano-svfprintf.o)
 .text.__ssputs_r
                0x08010dac       0xb2 c:/program files (x86)/embitz/1.11/share/em_armgcc/bin/../lib/gcc/arm-none-eabi/5.4.1/../../../../arm-none-eabi/lib/armv7e-m/fpu\libg_n.a(lib_a-nano-svfprintf.o)
                0x08010dac                __ssputs_r
 .text.__ssprint_r
                0x08010e5e       0xfe c:/program files (x86)/embitz/1.11/share/em_armgcc/bin/../lib/gcc/arm-none-eabi/5.4.1/../../../../arm-none-eabi/lib/armv7e-m/fpu\libg_n.a(lib_a-nano-svfprintf.o)
                0x08010e5e                __ssprint_r
 .text._svfprintf_r
                0x08010f5c      0x1e8 c:/program files (x86)/embitz/1.11/share/em_armgcc/bin/../lib/gcc/arm-none-eabi/5.4.1/../../../../arm-none-eabi/lib/armv7e-m/fpu\libg_n.a(lib_a-nano-svfprintf.o)
                0x08010f5c                _svfiprintf_r
                0x08010f5c                _svfprintf_r
 .text          0x08011144        0x0 c:/program files (x86)/embitz/1.11/share/em_armgcc/bin/../lib/gcc/arm-none-eabi/5.4.1/../../../../arm-none-eabi/lib/armv7e-m/fpu\libg_n.a(lib_a-nano-vfprintf_i.o)
 .text._printf_common
                0x08011144       0xec c:/program files (x86)/embitz/1.11/share/em_armgcc/bin/../lib/gcc/arm-none-eabi/5.4.1/../../../../arm-none-eabi/lib/armv7e-m/fpu\libg_n.a(lib_a-nano-vfprintf_i.o)
                0x08011144                _printf_common
 .text._printf_i
                0x08011230      0x24c c:/program files (x86)/embitz/1.11/share/em_armgcc/bin/../lib/gcc/arm-none-eabi/5.4.1/../../../../arm-none-eabi/lib/armv7e-m/fpu\libg_n.a(lib_a-nano-vfprintf_i.o)
                0x08011230                _printf_i
 *fill*         0x0801147c        0x4 
 .text          0x08011480       0xa0 c:/program files (x86)/embitz/1.11/share/em_armgcc/bin/../lib/gcc/arm-none-eabi/5.4.1/../../../../arm-none-eabi/lib/armv7e-m/fpu\libg_n.a(lib_a-memchr.o)
                0x08011480                memchr
 .text          0x08011520        0x0 c:/program files (x86)/embitz/1.11/share/em_armgcc/bin/../lib/gcc/arm-none-eabi/5.4.1/../../../../arm-none-eabi/lib/armv7e-m/fpu\libg_n.a(lib_a-memcpy-stub.o)
 .text.memcpy   0x08011520       0x16 c:/program files (x86)/embitz/1.11/share/em_armgcc/bin/../lib/gcc/arm-none-eabi/5.4.1/../../../../arm-none-eabi/lib/armv7e-m/fpu\libg_n.a(lib_a-memcpy-stub.o)
                0x08011520                memcpy
 .text          0x08011536        0x0 c:/program files (x86)/embitz/1.11/share/em_armgcc/bin/../lib/gcc/arm-none-eabi/5.4.1/../../../../arm-none-eabi/lib/armv7e-m/fpu\libg_n.a(lib_a-memmove.o)
 .text.memmove  0x08011536       0x36 c:/program files (x86)/embitz/1.11/share/em_armgcc/bin/../lib/gcc/arm-none-eabi/5.4.1/../../../../arm-none-eabi/lib/armv7e-m/fpu\libg_n.a(lib_a-memmove.o)
                0x08011536                memmove
 .text          0x0801156c        0x0 c:/program files (x86)/embitz/1.11/share/em_armgcc/bin/../lib/gcc/arm-none-eabi/5.4.1/../../../../arm-none-eabi/lib/armv7e-m/fpu\libg_n.a(lib_a-nano-freer.o)
 .text._free_r  0x0801156c       0x9c c:/program files (x86)/embitz/1.11/share/em_armgcc/bin/../lib/gcc/arm-none-eabi/5.4.1/../../../../arm-none-eabi/lib/armv7e-m/fpu\libg_n.a(lib_a-nano-freer.o)
                0x0801156c                _free_r
 .text          0x08011608        0x0 c:/program files (x86)/embitz/1.11/share/em_armgcc/bin/../lib/gcc/arm-none-eabi/5.4.1/../../../../arm-none-eabi/lib/armv7e-m/fpu\libg_n.a(lib_a-nano-mallocr.o)
 .text._malloc_r
                0x08011608       0xbc c:/program files (x86)/embitz/1.11/share/em_armgcc/bin/../lib/gcc/arm-none-eabi/5.4.1/../../../../arm-none-eabi/lib/armv7e-m/fpu\libg_n.a(lib_a-nano-mallocr.o)
                0x08011608                _malloc_r
 .text          0x080116c4        0x0 c:/program files (x86)/embitz/1.11/share/em_armgcc/bin/../lib/gcc/arm-none-eabi/5.4.1/../../../../arm-none-eabi/lib/armv7e-m/fpu\libg_n.a(lib_a-nano-reallocr.o)
 .text._realloc_r
                0x080116c4       0x4c c:/program files (x86)/embitz/1.11/share/em_armgcc/bin/../lib/gcc/arm-none-eabi/5.4.1/../../../../arm-none-eabi/lib/armv7e-m/fpu\libg_n.a(lib_a-nano-reallocr.o)
                0x080116c4                _realloc_r
 .text          0x08011710        0x0 c:/program files (x86)/embitz/1.11/share/em_armgcc/bin/../lib/gcc/arm-none-eabi/5.4.1/../../../../arm-none-eabi/lib/armv7e-m/fpu\libg_n.a(lib_a-sbrkr.o)
 .text._sbrk_r  0x08011710       0x20 c:/program files (x86)/embitz/1.11/share/em_armgcc/bin/../lib/gcc/arm-none-eabi/5.4.1/../../../../arm-none-eabi/lib/armv7e-m/fpu\libg_n.a(lib_a-sbrkr.o)
                0x08011710                _sbrk_r
 .text          0x08011730        0x0 c:/program files (x86)/embitz/1.11/share/em_armgcc/bin/../lib/gcc/arm-none-eabi/5.4.1/../../../../arm-none-eabi/lib/armv7e-m/fpu\libg_n.a(lib_a-mlock.o)
 .text.__malloc_lock
                0x08011730        0x2 c:/program files (x86)/embitz/1.11/share/em_armgcc/bin/../lib/gcc/arm-none-eabi/5.4.1/../../../../arm-none-eabi/lib/armv7e-m/fpu\libg_n.a(lib_a-mlock.o)
                0x08011730                __malloc_lock
 .text.__malloc_unlock
                0x08011732        0x2 c:/program files (x86)/embitz/1.11/share/em_armgcc/bin/../lib/gcc/arm-none-eabi/5.4.1/../../../../arm-none-eabi/lib/armv7e-m/fpu\libg_n.a(lib_a-mlock.o)
                0x08011732                __malloc_unlock
 .text          0x08011734        0x0 c:/program files (x86)/embitz/1.11/share/em_armgcc/bin/../lib/gcc/arm-none-eabi/5.4.1/../../../../arm-none-eabi/lib/armv7e-m/fpu\libg_n.a(lib_a-nano-msizer.o)
 .text._malloc_usable_size_r
                0x08011734       0x14 c:/program files (x86)/embitz/1.11/share/em_armgcc/bin/../lib/gcc/arm-none-eabi/5.4.1/../../../../arm-none-eabi/lib/armv7e-m/fpu\libg_n.a(lib_a-nano-msizer.o)
                0x08011734                _malloc_usable_size_r
 .text          0x08011748        0x0 c:/program files (x86)/embitz/1.11/share/em_armgcc/bin/../lib/gcc/arm-none-eabi/5.4.1/../../../../arm-none-eabi/lib/armv7e-m/fpu\libg_n.a(lib_a-reent.o)
 .text.cleanup_glue
                0x08011748       0x1a c:/program files (x86)/embitz/1.11/share/em_armgcc/bin/../lib/gcc/arm-none-eabi/5.4.1/../../../../arm-none-eabi/lib/armv7e-m/fpu\libg_n.a(lib_a-reent.o)
                0x08011748                cleanup_glue
 *fill*         0x08011762        0x2 
 .text._reclaim_reent
                0x08011764       0xb4 c:/program files (x86)/embitz/1.11/share/em_armgcc/bin/../lib/gcc/arm-none-eabi/5.4.1/../../../../arm-none-eabi/lib/armv7e-m/fpu\libg_n.a(lib_a-reent.o)
                0x08011764                _reclaim_reent
 .text          0x08011818        0x0 c:/program files (x86)/embitz/1.11/share/em_armgcc/bin/../lib/gcc/arm-none-eabi/5.4.1/../../../../arm-none-eabi/lib/armv7e-m/fpu\libnosys_s.a(sbrk.o)
 .text._sbrk    0x08011818       0x1c c:/program files (x86)/embitz/1.11/share/em_armgcc/bin/../lib/gcc/arm-none-eabi/5.4.1/../../../../arm-none-eabi/lib/armv7e-m/fpu\libnosys_s.a(sbrk.o)
                0x08011818                _sbrk
 .text          0x08011834        0x0 c:/program files (x86)/embitz/1.11/share/em_armgcc/bin/../lib/gcc/arm-none-eabi/5.4.1/../../../../arm-none-eabi/lib/armv7e-m/fpu\libnosys_s.a(_exit.o)
 .text._exit    0x08011834        0x2 c:/program files (x86)/embitz/1.11/share/em_armgcc/bin/../lib/gcc/arm-none-eabi/5.4.1/../../../../arm-none-eabi/lib/armv7e-m/fpu\libnosys_s.a(_exit.o)
                0x08011834                _exit
 .text          0x08011836        0x0 c:/program files (x86)/embitz/1.11/share/em_armgcc/bin/../lib/gcc/arm-none-eabi/5.4.1/armv7e-m/fpu/crtend.o
 .text          0x08011836        0x0 c:/program files (x86)/embitz/1.11/share/em_armgcc/bin/../lib/gcc/arm-none-eabi/5.4.1/armv7e-m/fpu/crtn.o
 *(.init)
 *fill*         0x08011836        0x2 
 .init          0x08011838        0x4 c:/program files (x86)/embitz/1.11/share/em_armgcc/bin/../lib/gcc/arm-none-eabi/5.4.1/armv7e-m/fpu/crti.o
                0x08011838                _init
 .init          0x0801183c        0x8 c:/program files (x86)/embitz/1.11/share/em_armgcc/bin/../lib/gcc/arm-none-eabi/5.4.1/armv7e-m/fpu/crtn.o
 *(.fini)
 .fini          0x08011844        0x4 c:/program files (x86)/embitz/1.11/share/em_armgcc/bin/../lib/gcc/arm-none-eabi/5.4.1/armv7e-m/fpu/crti.o
                0x08011844                _fini
 .fini          0x08011848        0x8 c:/program files (x86)/embitz/1.11/share/em_armgcc/bin/../lib/gcc/arm-none-eabi/5.4.1/armv7e-m/fpu/crtn.o
 *crtbegin.o(.ctors)
 *crtbegin?.o(.ctors)
 *(EXCLUDE_FILE(*crtend.o *crtend?.o) .ctors)
 *(SORT(.ctors.*))
 *(.ctors)
 *crtbegin.o(.dtors)
 *crtbegin?.o(.dtors)
 *(EXCLUDE_FILE(*crtend.o *crtend?.o) .dtors)
 *(SORT(.dtors.*))
 *(.dtors)
 *(.rodata*)
 .rodata.firCoeffs32
                0x08011850       0x64 obj\release\src\filter_audio_segnal.o
                0x08011850                firCoeffs32
 .rodata.firCoeffs32_2
                0x080118b4      0x194 obj\release\src\filter_audio_segnal.o
                0x080118b4                firCoeffs32_2
 .rodata.firCoeffs32_3
                0x08011a48       0x44 obj\release\src\filter_audio_segnal.o
                0x08011a48                firCoeffs32_3
 .rodata.firCoeffs32_4
                0x08011a8c       0x44 obj\release\src\filter_audio_segnal.o
                0x08011a8c                firCoeffs32_4
 .rodata.str1.4
                0x08011ad0      0x151 obj\release\src\io_display.o
                                0x155 (size before relaxing)
 *fill*         0x08011c21        0x3 
 .rodata.TM_Font16x26
                0x08011c24     0x134c obj\release\src\tm_spi\tm_stm32f4_fonts.o
                0x08011c24                TM_Font16x26
 .rodata.TM_Font7x10
                0x08012f70      0x76c obj\release\src\tm_spi\tm_stm32f4_fonts.o
                0x08012f70                TM_Font7x10
 .rodata.TM_Font11x18
                0x080136dc      0xd5c obj\release\src\tm_spi\tm_stm32f4_fonts.o
                0x080136dc                TM_Font11x18
 .rodata.arm_cfft_sR_q15_len1024
                0x08014438       0x10 ..\CMSIS-4.5.0\CMSIS-4.5.0\CMSIS\Lib\GCC\libarm_cortexM4lf_math.a(arm_const_structs.o)
                0x08014438                arm_cfft_sR_q15_len1024
 .rodata.arm_cfft_sR_q31_len512
                0x08014448       0x10 ..\CMSIS-4.5.0\CMSIS-4.5.0\CMSIS\Lib\GCC\libarm_cortexM4lf_math.a(arm_const_structs.o)
                0x08014448                arm_cfft_sR_q31_len512
 .rodata.arm_cfft_sR_q15_len16
                0x08014458       0x10 ..\CMSIS-4.5.0\CMSIS-4.5.0\CMSIS\Lib\GCC\libarm_cortexM4lf_math.a(arm_const_structs.o)
                0x08014458                arm_cfft_sR_q15_len16
 .rodata.arm_cfft_sR_f32_len256
                0x08014468       0x10 ..\CMSIS-4.5.0\CMSIS-4.5.0\CMSIS\Lib\GCC\libarm_cortexM4lf_math.a(arm_const_structs.o)
                0x08014468                arm_cfft_sR_f32_len256
 .rodata.arm_cfft_sR_f32_len2048
                0x08014478       0x10 ..\CMSIS-4.5.0\CMSIS-4.5.0\CMSIS\Lib\GCC\libarm_cortexM4lf_math.a(arm_const_structs.o)
                0x08014478                arm_cfft_sR_f32_len2048
 .rodata.arm_cfft_sR_q31_len4096
                0x08014488       0x10 ..\CMSIS-4.5.0\CMSIS-4.5.0\CMSIS\Lib\GCC\libarm_cortexM4lf_math.a(arm_const_structs.o)
                0x08014488                arm_cfft_sR_q31_len4096
 .rodata.arm_cfft_sR_q15_len32
                0x08014498       0x10 ..\CMSIS-4.5.0\CMSIS-4.5.0\CMSIS\Lib\GCC\libarm_cortexM4lf_math.a(arm_const_structs.o)
                0x08014498                arm_cfft_sR_q15_len32
 .rodata.arm_cfft_sR_f32_len16
                0x080144a8       0x10 ..\CMSIS-4.5.0\CMSIS-4.5.0\CMSIS\Lib\GCC\libarm_cortexM4lf_math.a(arm_const_structs.o)
                0x080144a8                arm_cfft_sR_f32_len16
 .rodata.arm_cfft_sR_q15_len4096
                0x080144b8       0x10 ..\CMSIS-4.5.0\CMSIS-4.5.0\CMSIS\Lib\GCC\libarm_cortexM4lf_math.a(arm_const_structs.o)
                0x080144b8                arm_cfft_sR_q15_len4096
 .rodata.arm_cfft_sR_q15_len512
                0x080144c8       0x10 ..\CMSIS-4.5.0\CMSIS-4.5.0\CMSIS\Lib\GCC\libarm_cortexM4lf_math.a(arm_const_structs.o)
                0x080144c8                arm_cfft_sR_q15_len512
 .rodata.arm_cfft_sR_f32_len32
                0x080144d8       0x10 ..\CMSIS-4.5.0\CMSIS-4.5.0\CMSIS\Lib\GCC\libarm_cortexM4lf_math.a(arm_const_structs.o)
                0x080144d8                arm_cfft_sR_f32_len32
 .rodata.arm_cfft_sR_f32_len64
                0x080144e8       0x10 ..\CMSIS-4.5.0\CMSIS-4.5.0\CMSIS\Lib\GCC\libarm_cortexM4lf_math.a(arm_const_structs.o)
                0x080144e8                arm_cfft_sR_f32_len64
 .rodata.arm_cfft_sR_q31_len16
                0x080144f8       0x10 ..\CMSIS-4.5.0\CMSIS-4.5.0\CMSIS\Lib\GCC\libarm_cortexM4lf_math.a(arm_const_structs.o)
                0x080144f8                arm_cfft_sR_q31_len16
 .rodata.arm_cfft_sR_f32_len1024
                0x08014508       0x10 ..\CMSIS-4.5.0\CMSIS-4.5.0\CMSIS\Lib\GCC\libarm_cortexM4lf_math.a(arm_const_structs.o)
                0x08014508                arm_cfft_sR_f32_len1024
 .rodata.arm_cfft_sR_q15_len64
                0x08014518       0x10 ..\CMSIS-4.5.0\CMSIS-4.5.0\CMSIS\Lib\GCC\libarm_cortexM4lf_math.a(arm_const_structs.o)
                0x08014518                arm_cfft_sR_q15_len64
 .rodata.arm_cfft_sR_q15_len256
                0x08014528       0x10 ..\CMSIS-4.5.0\CMSIS-4.5.0\CMSIS\Lib\GCC\libarm_cortexM4lf_math.a(arm_const_structs.o)
                0x08014528                arm_cfft_sR_q15_len256
 .rodata.arm_cfft_sR_q31_len32
                0x08014538       0x10 ..\CMSIS-4.5.0\CMSIS-4.5.0\CMSIS\Lib\GCC\libarm_cortexM4lf_math.a(arm_const_structs.o)
                0x08014538                arm_cfft_sR_q31_len32
 .rodata.arm_cfft_sR_q31_len2048
                0x08014548       0x10 ..\CMSIS-4.5.0\CMSIS-4.5.0\CMSIS\Lib\GCC\libarm_cortexM4lf_math.a(arm_const_structs.o)
                0x08014548                arm_cfft_sR_q31_len2048
 .rodata.arm_cfft_sR_q15_len128
                0x08014558       0x10 ..\CMSIS-4.5.0\CMSIS-4.5.0\CMSIS\Lib\GCC\libarm_cortexM4lf_math.a(arm_const_structs.o)
                0x08014558                arm_cfft_sR_q15_len128
 .rodata.arm_cfft_sR_q31_len256
                0x08014568       0x10 ..\CMSIS-4.5.0\CMSIS-4.5.0\CMSIS\Lib\GCC\libarm_cortexM4lf_math.a(arm_const_structs.o)
                0x08014568                arm_cfft_sR_q31_len256
 .rodata.arm_cfft_sR_q15_len2048
                0x08014578       0x10 ..\CMSIS-4.5.0\CMSIS-4.5.0\CMSIS\Lib\GCC\libarm_cortexM4lf_math.a(arm_const_structs.o)
                0x08014578                arm_cfft_sR_q15_len2048
 .rodata.arm_cfft_sR_f32_len128
                0x08014588       0x10 ..\CMSIS-4.5.0\CMSIS-4.5.0\CMSIS\Lib\GCC\libarm_cortexM4lf_math.a(arm_const_structs.o)
                0x08014588                arm_cfft_sR_f32_len128
 .rodata.arm_cfft_sR_f32_len512
                0x08014598       0x10 ..\CMSIS-4.5.0\CMSIS-4.5.0\CMSIS\Lib\GCC\libarm_cortexM4lf_math.a(arm_const_structs.o)
                0x08014598                arm_cfft_sR_f32_len512
 .rodata.arm_cfft_sR_q31_len1024
                0x080145a8       0x10 ..\CMSIS-4.5.0\CMSIS-4.5.0\CMSIS\Lib\GCC\libarm_cortexM4lf_math.a(arm_const_structs.o)
                0x080145a8                arm_cfft_sR_q31_len1024
 .rodata.arm_cfft_sR_f32_len4096
                0x080145b8       0x10 ..\CMSIS-4.5.0\CMSIS-4.5.0\CMSIS\Lib\GCC\libarm_cortexM4lf_math.a(arm_const_structs.o)
                0x080145b8                arm_cfft_sR_f32_len4096
 .rodata.arm_cfft_sR_q31_len128
                0x080145c8       0x10 ..\CMSIS-4.5.0\CMSIS-4.5.0\CMSIS\Lib\GCC\libarm_cortexM4lf_math.a(arm_const_structs.o)
                0x080145c8                arm_cfft_sR_q31_len128
 .rodata.arm_cfft_sR_q31_len64
                0x080145d8       0x10 ..\CMSIS-4.5.0\CMSIS-4.5.0\CMSIS\Lib\GCC\libarm_cortexM4lf_math.a(arm_const_structs.o)
                0x080145d8                arm_cfft_sR_q31_len64
 .rodata.armBitRevIndexTable_fixed_128
                0x080145e8       0xe0 ..\CMSIS-4.5.0\CMSIS-4.5.0\CMSIS\Lib\GCC\libarm_cortexM4lf_math.a(arm_common_tables.o)
                0x080145e8                armBitRevIndexTable_fixed_128
 .rodata.twiddleCoef_2048
                0x080146c8     0x4000 ..\CMSIS-4.5.0\CMSIS-4.5.0\CMSIS\Lib\GCC\libarm_cortexM4lf_math.a(arm_common_tables.o)
                0x080146c8                twiddleCoef_2048
 .rodata.armBitRevIndexTable_fixed_2048
                0x080186c8      0xf80 ..\CMSIS-4.5.0\CMSIS-4.5.0\CMSIS\Lib\GCC\libarm_cortexM4lf_math.a(arm_common_tables.o)
                0x080186c8                armBitRevIndexTable_fixed_2048
 .rodata.twiddleCoef_32_q31
                0x08019648       0xc0 ..\CMSIS-4.5.0\CMSIS-4.5.0\CMSIS\Lib\GCC\libarm_cortexM4lf_math.a(arm_common_tables.o)
                0x08019648                twiddleCoef_32_q31
 .rodata.armBitRevIndexTable_fixed_4096
                0x08019708     0x1f80 ..\CMSIS-4.5.0\CMSIS-4.5.0\CMSIS\Lib\GCC\libarm_cortexM4lf_math.a(arm_common_tables.o)
                0x08019708                armBitRevIndexTable_fixed_4096
 .rodata.twiddleCoef_rfft_64
                0x0801b688      0x100 ..\CMSIS-4.5.0\CMSIS-4.5.0\CMSIS\Lib\GCC\libarm_cortexM4lf_math.a(arm_common_tables.o)
                0x0801b688                twiddleCoef_rfft_64
 .rodata.armBitRevIndexTable64
                0x0801b788       0x70 ..\CMSIS-4.5.0\CMSIS-4.5.0\CMSIS\Lib\GCC\libarm_cortexM4lf_math.a(arm_common_tables.o)
                0x0801b788                armBitRevIndexTable64
 .rodata.twiddleCoef_rfft_2048
                0x0801b7f8     0x2000 ..\CMSIS-4.5.0\CMSIS-4.5.0\CMSIS\Lib\GCC\libarm_cortexM4lf_math.a(arm_common_tables.o)
                0x0801b7f8                twiddleCoef_rfft_2048
 .rodata.armBitRevIndexTable_fixed_1024
                0x0801d7f8      0x7c0 ..\CMSIS-4.5.0\CMSIS-4.5.0\CMSIS\Lib\GCC\libarm_cortexM4lf_math.a(arm_common_tables.o)
                0x0801d7f8                armBitRevIndexTable_fixed_1024
 .rodata.twiddleCoef_rfft_4096
                0x0801dfb8     0x4000 ..\CMSIS-4.5.0\CMSIS-4.5.0\CMSIS\Lib\GCC\libarm_cortexM4lf_math.a(arm_common_tables.o)
                0x0801dfb8                twiddleCoef_rfft_4096
 .rodata.twiddleCoef_256
                0x08021fb8      0x800 ..\CMSIS-4.5.0\CMSIS-4.5.0\CMSIS\Lib\GCC\libarm_cortexM4lf_math.a(arm_common_tables.o)
                0x08021fb8                twiddleCoef_256
 .rodata.twiddleCoef_1024_q15
                0x080227b8      0xc00 ..\CMSIS-4.5.0\CMSIS-4.5.0\CMSIS\Lib\GCC\libarm_cortexM4lf_math.a(arm_common_tables.o)
                0x080227b8                twiddleCoef_1024_q15
 .rodata.twiddleCoef_1024_q31
                0x080233b8     0x1800 ..\CMSIS-4.5.0\CMSIS-4.5.0\CMSIS\Lib\GCC\libarm_cortexM4lf_math.a(arm_common_tables.o)
                0x080233b8                twiddleCoef_1024_q31
 .rodata.twiddleCoef_32_q15
                0x08024bb8       0x60 ..\CMSIS-4.5.0\CMSIS-4.5.0\CMSIS\Lib\GCC\libarm_cortexM4lf_math.a(arm_common_tables.o)
                0x08024bb8                twiddleCoef_32_q15
 .rodata.twiddleCoef_16
                0x08024c18       0x80 ..\CMSIS-4.5.0\CMSIS-4.5.0\CMSIS\Lib\GCC\libarm_cortexM4lf_math.a(arm_common_tables.o)
                0x08024c18                twiddleCoef_16
 .rodata.twiddleCoef_4096_q15
                0x08024c98     0x3000 ..\CMSIS-4.5.0\CMSIS-4.5.0\CMSIS\Lib\GCC\libarm_cortexM4lf_math.a(arm_common_tables.o)
                0x08024c98                twiddleCoef_4096_q15
 .rodata.twiddleCoef_4096_q31
                0x08027c98     0x6000 ..\CMSIS-4.5.0\CMSIS-4.5.0\CMSIS\Lib\GCC\libarm_cortexM4lf_math.a(arm_common_tables.o)
                0x08027c98                twiddleCoef_4096_q31
 .rodata.sinTable_q15
                0x0802dc98      0x402 ..\CMSIS-4.5.0\CMSIS-4.5.0\CMSIS\Lib\GCC\libarm_cortexM4lf_math.a(arm_common_tables.o)
                0x0802dc98                sinTable_q15
 *fill*         0x0802e09a        0x2 
 .rodata.sinTable_q31
                0x0802e09c      0x804 ..\CMSIS-4.5.0\CMSIS-4.5.0\CMSIS\Lib\GCC\libarm_cortexM4lf_math.a(arm_common_tables.o)
                0x0802e09c                sinTable_q31
 .rodata.twiddleCoef_1024
                0x0802e8a0     0x2000 ..\CMSIS-4.5.0\CMSIS-4.5.0\CMSIS\Lib\GCC\libarm_cortexM4lf_math.a(arm_common_tables.o)
                0x0802e8a0                twiddleCoef_1024
 .rodata.twiddleCoef_32
                0x080308a0      0x100 ..\CMSIS-4.5.0\CMSIS-4.5.0\CMSIS\Lib\GCC\libarm_cortexM4lf_math.a(arm_common_tables.o)
                0x080308a0                twiddleCoef_32
 .rodata.armBitRevIndexTable1024
                0x080309a0      0xe10 ..\CMSIS-4.5.0\CMSIS-4.5.0\CMSIS\Lib\GCC\libarm_cortexM4lf_math.a(arm_common_tables.o)
                0x080309a0                armBitRevIndexTable1024
 .rodata.twiddleCoef_16_q15
                0x080317b0       0x30 ..\CMSIS-4.5.0\CMSIS-4.5.0\CMSIS\Lib\GCC\libarm_cortexM4lf_math.a(arm_common_tables.o)
                0x080317b0                twiddleCoef_16_q15
 .rodata.twiddleCoef_16_q31
                0x080317e0       0x60 ..\CMSIS-4.5.0\CMSIS-4.5.0\CMSIS\Lib\GCC\libarm_cortexM4lf_math.a(arm_common_tables.o)
                0x080317e0                twiddleCoef_16_q31
 .rodata.armBitRevIndexTable16
                0x08031840       0x28 ..\CMSIS-4.5.0\CMSIS-4.5.0\CMSIS\Lib\GCC\libarm_cortexM4lf_math.a(arm_common_tables.o)
                0x08031840                armBitRevIndexTable16
 .rodata.twiddleCoef_rfft_32
                0x08031868       0x80 ..\CMSIS-4.5.0\CMSIS-4.5.0\CMSIS\Lib\GCC\libarm_cortexM4lf_math.a(arm_common_tables.o)
                0x08031868                twiddleCoef_rfft_32
 .rodata.armBitRevIndexTable32
                0x080318e8       0x60 ..\CMSIS-4.5.0\CMSIS-4.5.0\CMSIS\Lib\GCC\libarm_cortexM4lf_math.a(arm_common_tables.o)
                0x080318e8                armBitRevIndexTable32
 .rodata.armBitRevTable
                0x08031948      0x800 ..\CMSIS-4.5.0\CMSIS-4.5.0\CMSIS\Lib\GCC\libarm_cortexM4lf_math.a(arm_common_tables.o)
                0x08031948                armBitRevTable
 .rodata.sinTable_f32
                0x08032148      0x804 ..\CMSIS-4.5.0\CMSIS-4.5.0\CMSIS\Lib\GCC\libarm_cortexM4lf_math.a(arm_common_tables.o)
                0x08032148                sinTable_f32
 .rodata.twiddleCoef_128
                0x0803294c      0x400 ..\CMSIS-4.5.0\CMSIS-4.5.0\CMSIS\Lib\GCC\libarm_cortexM4lf_math.a(arm_common_tables.o)
                0x0803294c                twiddleCoef_128
 .rodata.twiddleCoef_64_q15
                0x08032d4c       0xc0 ..\CMSIS-4.5.0\CMSIS-4.5.0\CMSIS\Lib\GCC\libarm_cortexM4lf_math.a(arm_common_tables.o)
                0x08032d4c                twiddleCoef_64_q15
 .rodata.twiddleCoef_2048_q15
                0x08032e0c     0x1800 ..\CMSIS-4.5.0\CMSIS-4.5.0\CMSIS\Lib\GCC\libarm_cortexM4lf_math.a(arm_common_tables.o)
                0x08032e0c                twiddleCoef_2048_q15
 .rodata.twiddleCoef_64_q31
                0x0803460c      0x180 ..\CMSIS-4.5.0\CMSIS-4.5.0\CMSIS\Lib\GCC\libarm_cortexM4lf_math.a(arm_common_tables.o)
                0x0803460c                twiddleCoef_64_q31
 .rodata.twiddleCoef_2048_q31
                0x0803478c     0x3000 ..\CMSIS-4.5.0\CMSIS-4.5.0\CMSIS\Lib\GCC\libarm_cortexM4lf_math.a(arm_common_tables.o)
                0x0803478c                twiddleCoef_2048_q31
 .rodata.twiddleCoef_256_q15
                0x0803778c      0x300 ..\CMSIS-4.5.0\CMSIS-4.5.0\CMSIS\Lib\GCC\libarm_cortexM4lf_math.a(arm_common_tables.o)
                0x0803778c                twiddleCoef_256_q15
 .rodata.twiddleCoef_512_q15
                0x08037a8c      0x600 ..\CMSIS-4.5.0\CMSIS-4.5.0\CMSIS\Lib\GCC\libarm_cortexM4lf_math.a(arm_common_tables.o)
                0x08037a8c                twiddleCoef_512_q15
 .rodata.twiddleCoef_256_q31
                0x0803808c      0x600 ..\CMSIS-4.5.0\CMSIS-4.5.0\CMSIS\Lib\GCC\libarm_cortexM4lf_math.a(arm_common_tables.o)
                0x0803808c                twiddleCoef_256_q31
 .rodata.twiddleCoef_512
                0x0803868c     0x1000 ..\CMSIS-4.5.0\CMSIS-4.5.0\CMSIS\Lib\GCC\libarm_cortexM4lf_math.a(arm_common_tables.o)
                0x0803868c                twiddleCoef_512
 .rodata.twiddleCoef_512_q31
                0x0803968c      0xc00 ..\CMSIS-4.5.0\CMSIS-4.5.0\CMSIS\Lib\GCC\libarm_cortexM4lf_math.a(arm_common_tables.o)
                0x0803968c                twiddleCoef_512_q31
 .rodata.armBitRevIndexTable2048
                0x0803a28c     0x1dc0 ..\CMSIS-4.5.0\CMSIS-4.5.0\CMSIS\Lib\GCC\libarm_cortexM4lf_math.a(arm_common_tables.o)
                0x0803a28c                armBitRevIndexTable2048
 .rodata.armRecipTableQ15
                0x0803c04c       0x80 ..\CMSIS-4.5.0\CMSIS-4.5.0\CMSIS\Lib\GCC\libarm_cortexM4lf_math.a(arm_common_tables.o)
                0x0803c04c                armRecipTableQ15
 .rodata.twiddleCoef_64
                0x0803c0cc      0x200 ..\CMSIS-4.5.0\CMSIS-4.5.0\CMSIS\Lib\GCC\libarm_cortexM4lf_math.a(arm_common_tables.o)
                0x0803c0cc                twiddleCoef_64
 .rodata.armBitRevIndexTable4096
                0x0803c2cc     0x1f80 ..\CMSIS-4.5.0\CMSIS-4.5.0\CMSIS\Lib\GCC\libarm_cortexM4lf_math.a(arm_common_tables.o)
                0x0803c2cc                armBitRevIndexTable4096
 .rodata.armRecipTableQ31
                0x0803e24c      0x100 ..\CMSIS-4.5.0\CMSIS-4.5.0\CMSIS\Lib\GCC\libarm_cortexM4lf_math.a(arm_common_tables.o)
                0x0803e24c                armRecipTableQ31
 .rodata.twiddleCoef_rfft_512
                0x0803e34c      0x800 ..\CMSIS-4.5.0\CMSIS-4.5.0\CMSIS\Lib\GCC\libarm_cortexM4lf_math.a(arm_common_tables.o)
                0x0803e34c                twiddleCoef_rfft_512
 .rodata.armBitRevIndexTable512
                0x0803eb4c      0x380 ..\CMSIS-4.5.0\CMSIS-4.5.0\CMSIS\Lib\GCC\libarm_cortexM4lf_math.a(arm_common_tables.o)
                0x0803eb4c                armBitRevIndexTable512
 .rodata.armBitRevIndexTable_fixed_512
                0x0803eecc      0x3c0 ..\CMSIS-4.5.0\CMSIS-4.5.0\CMSIS\Lib\GCC\libarm_cortexM4lf_math.a(arm_common_tables.o)
                0x0803eecc                armBitRevIndexTable_fixed_512
 .rodata.armBitRevIndexTable_fixed_16
                0x0803f28c       0x18 ..\CMSIS-4.5.0\CMSIS-4.5.0\CMSIS\Lib\GCC\libarm_cortexM4lf_math.a(arm_common_tables.o)
                0x0803f28c                armBitRevIndexTable_fixed_16
 .rodata.twiddleCoef_128_q15
                0x0803f2a4      0x180 ..\CMSIS-4.5.0\CMSIS-4.5.0\CMSIS\Lib\GCC\libarm_cortexM4lf_math.a(arm_common_tables.o)
                0x0803f2a4                twiddleCoef_128_q15
 .rodata.twiddleCoef_rfft_1024
                0x0803f424     0x1000 ..\CMSIS-4.5.0\CMSIS-4.5.0\CMSIS\Lib\GCC\libarm_cortexM4lf_math.a(arm_common_tables.o)
                0x0803f424                twiddleCoef_rfft_1024
 .rodata.twiddleCoef_rfft_256
                0x08040424      0x400 ..\CMSIS-4.5.0\CMSIS-4.5.0\CMSIS\Lib\GCC\libarm_cortexM4lf_math.a(arm_common_tables.o)
                0x08040424                twiddleCoef_rfft_256
 .rodata.armBitRevIndexTable256
                0x08040824      0x370 ..\CMSIS-4.5.0\CMSIS-4.5.0\CMSIS\Lib\GCC\libarm_cortexM4lf_math.a(arm_common_tables.o)
                0x08040824                armBitRevIndexTable256
 .rodata.armBitRevIndexTable_fixed_32
                0x08040b94       0x30 ..\CMSIS-4.5.0\CMSIS-4.5.0\CMSIS\Lib\GCC\libarm_cortexM4lf_math.a(arm_common_tables.o)
                0x08040b94                armBitRevIndexTable_fixed_32
 .rodata.armBitRevIndexTable_fixed_256
                0x08040bc4      0x1e0 ..\CMSIS-4.5.0\CMSIS-4.5.0\CMSIS\Lib\GCC\libarm_cortexM4lf_math.a(arm_common_tables.o)
                0x08040bc4                armBitRevIndexTable_fixed_256
 .rodata.armBitRevIndexTable_fixed_64
                0x08040da4       0x70 ..\CMSIS-4.5.0\CMSIS-4.5.0\CMSIS\Lib\GCC\libarm_cortexM4lf_math.a(arm_common_tables.o)
                0x08040da4                armBitRevIndexTable_fixed_64
 .rodata.twiddleCoef_rfft_128
                0x08040e14      0x200 ..\CMSIS-4.5.0\CMSIS-4.5.0\CMSIS\Lib\GCC\libarm_cortexM4lf_math.a(arm_common_tables.o)
                0x08040e14                twiddleCoef_rfft_128
 .rodata.armBitRevIndexTable128
                0x08041014      0x1a0 ..\CMSIS-4.5.0\CMSIS-4.5.0\CMSIS\Lib\GCC\libarm_cortexM4lf_math.a(arm_common_tables.o)
                0x08041014                armBitRevIndexTable128
 .rodata.twiddleCoef_4096
                0x080411b4     0x8000 ..\CMSIS-4.5.0\CMSIS-4.5.0\CMSIS\Lib\GCC\libarm_cortexM4lf_math.a(arm_common_tables.o)
                0x080411b4                twiddleCoef_4096
 .rodata.twiddleCoef_128_q31
                0x080491b4      0x300 ..\CMSIS-4.5.0\CMSIS-4.5.0\CMSIS\Lib\GCC\libarm_cortexM4lf_math.a(arm_common_tables.o)
                0x080491b4                twiddleCoef_128_q31
 .rodata.str1.4
                0x080494b4        0x8 c:/program files (x86)/embitz/1.11/share/em_armgcc/bin/../lib/gcc/arm-none-eabi/5.4.1/../../../../arm-none-eabi/lib/armv7e-m/fpu\libm.a(lib_a-wf_sqrt.o)
                                  0x6 (size before relaxing)
 .rodata.atanlo
                0x080494bc       0x10 c:/program files (x86)/embitz/1.11/share/em_armgcc/bin/../lib/gcc/arm-none-eabi/5.4.1/../../../../arm-none-eabi/lib/armv7e-m/fpu\libm.a(lib_a-sf_atan.o)
 .rodata.atanhi
                0x080494cc       0x10 c:/program files (x86)/embitz/1.11/share/em_armgcc/bin/../lib/gcc/arm-none-eabi/5.4.1/../../../../arm-none-eabi/lib/armv7e-m/fpu\libm.a(lib_a-sf_atan.o)
 .rodata.str1.1
                0x080494dc        0x2 c:/program files (x86)/embitz/1.11/share/em_armgcc/bin/../lib/gcc/arm-none-eabi/5.4.1/../../../../arm-none-eabi/lib/armv7e-m/fpu\libg_n.a(lib_a-impure.o)
 *fill*         0x080494de        0x2 
 .rodata._global_impure_ptr
                0x080494e0        0x4 c:/program files (x86)/embitz/1.11/share/em_armgcc/bin/../lib/gcc/arm-none-eabi/5.4.1/../../../../arm-none-eabi/lib/armv7e-m/fpu\libg_n.a(lib_a-impure.o)
                0x080494e0                _global_impure_ptr
 .rodata.str1.1
                0x080494e4       0x11 c:/program files (x86)/embitz/1.11/share/em_armgcc/bin/../lib/gcc/arm-none-eabi/5.4.1/../../../../arm-none-eabi/lib/armv7e-m/fpu\libg_n.a(lib_a-nano-svfprintf.o)
 .rodata.str1.1
                0x080494f5       0x22 c:/program files (x86)/embitz/1.11/share/em_armgcc/bin/../lib/gcc/arm-none-eabi/5.4.1/../../../../arm-none-eabi/lib/armv7e-m/fpu\libg_n.a(lib_a-nano-vfprintf_i.o)
 *(.eh_frame*)
 *fill*         0x08049517        0x1 
 .eh_frame      0x08049518        0x0 c:/program files (x86)/embitz/1.11/share/em_armgcc/bin/../lib/gcc/arm-none-eabi/5.4.1/armv7e-m/fpu/crtbegin.o
 .eh_frame      0x08049518        0x4 c:/program files (x86)/embitz/1.11/share/em_armgcc/bin/../lib/gcc/arm-none-eabi/5.4.1/armv7e-m/fpu/crtend.o

.glue_7         0x0804951c        0x0
 .glue_7        0x0804951c        0x0 linker stubs

.glue_7t        0x0804951c        0x0
 .glue_7t       0x0804951c        0x0 linker stubs

.vfp11_veneer   0x0804951c        0x0
 .vfp11_veneer  0x0804951c        0x0 linker stubs

.v4_bx          0x0804951c        0x0
 .v4_bx         0x0804951c        0x0 linker stubs

.iplt           0x0804951c        0x0
 .iplt          0x0804951c        0x0 c:/program files (x86)/embitz/1.11/share/em_armgcc/bin/../lib/gcc/arm-none-eabi/5.4.1/armv7e-m/fpu/crtbegin.o

.ARM.extab      0x0804951c        0x0
 *(.ARM.extab* .gnu.linkonce.armextab.*)
 .ARM.extab     0x0804951c        0x0 c:/program files (x86)/embitz/1.11/share/em_armgcc/bin/../lib/gcc/arm-none-eabi/5.4.1/../../../../arm-none-eabi/lib/armv7e-m/fpu/crt0.o
                0x0804951c                __exidx_start = .

.ARM.exidx      0x0804951c        0x8
 *(.ARM.exidx* .gnu.linkonce.armexidx.*)
 .ARM.exidx     0x0804951c        0x8 c:/program files (x86)/embitz/1.11/share/em_armgcc/bin/../lib/gcc/arm-none-eabi/5.4.1/../../../../arm-none-eabi/lib/armv7e-m/fpu/crt0.o
                0x08049524                __exidx_end = .
                0x08049524                __etext = .

.rel.dyn        0x08049524        0x0
 .rel.iplt      0x08049524        0x0 c:/program files (x86)/embitz/1.11/share/em_armgcc/bin/../lib/gcc/arm-none-eabi/5.4.1/armv7e-m/fpu/crtbegin.o

.data           0x20000000      0x120 load address 0x08049524
                0x20000000                __data_start__ = .
 *(vtable)
 *(.data*)
 .data          0x20000000        0x0 c:/program files (x86)/embitz/1.11/share/em_armgcc/bin/../lib/gcc/arm-none-eabi/5.4.1/armv7e-m/fpu/crti.o
 .data          0x20000000        0x4 c:/program files (x86)/embitz/1.11/share/em_armgcc/bin/../lib/gcc/arm-none-eabi/5.4.1/armv7e-m/fpu/crtbegin.o
                0x20000000                __dso_handle
 .data          0x20000004        0x0 c:/program files (x86)/embitz/1.11/share/em_armgcc/bin/../lib/gcc/arm-none-eabi/5.4.1/../../../../arm-none-eabi/lib/armv7e-m/fpu/crt0.o
 .data          0x20000004        0x0 obj\release\spl\src\misc.o
 .data          0x20000004        0x0 obj\release\spl\src\stm32f4xx_adc.o
 .data          0x20000004        0x0 obj\release\spl\src\stm32f4xx_can.o
 .data          0x20000004        0x0 obj\release\spl\src\stm32f4xx_crc.o
 .data          0x20000004        0x0 obj\release\spl\src\stm32f4xx_cryp.o
 .data          0x20000004        0x0 obj\release\spl\src\stm32f4xx_cryp_aes.o
 .data          0x20000004        0x0 obj\release\spl\src\stm32f4xx_cryp_des.o
 .data          0x20000004        0x0 obj\release\spl\src\stm32f4xx_cryp_tdes.o
 .data          0x20000004        0x0 obj\release\spl\src\stm32f4xx_dac.o
 .data          0x20000004        0x0 obj\release\spl\src\stm32f4xx_dbgmcu.o
 .data          0x20000004        0x0 obj\release\spl\src\stm32f4xx_dcmi.o
 .data          0x20000004        0x0 obj\release\spl\src\stm32f4xx_dma.o
 .data          0x20000004        0x0 obj\release\spl\src\stm32f4xx_exti.o
 .data          0x20000004        0x0 obj\release\spl\src\stm32f4xx_flash.o
 .data          0x20000004        0x0 obj\release\spl\src\stm32f4xx_fsmc.o
 .data          0x20000004        0x0 obj\release\spl\src\stm32f4xx_gpio.o
 .data          0x20000004        0x0 obj\release\spl\src\stm32f4xx_hash.o
 .data          0x20000004        0x0 obj\release\spl\src\stm32f4xx_hash_md5.o
 .data          0x20000004        0x0 obj\release\spl\src\stm32f4xx_hash_sha1.o
 .data          0x20000004        0x0 obj\release\spl\src\stm32f4xx_i2c.o
 .data          0x20000004        0x0 obj\release\spl\src\stm32f4xx_iwdg.o
 .data          0x20000004        0x0 obj\release\spl\src\stm32f4xx_pwr.o
 .data          0x20000004        0x0 obj\release\spl\src\stm32f4xx_rcc.o
 .data.APBAHBPrescTable
                0x20000004       0x10 obj\release\spl\src\stm32f4xx_rcc.o
 .data          0x20000014        0x0 obj\release\spl\src\stm32f4xx_rng.o
 .data          0x20000014        0x0 obj\release\spl\src\stm32f4xx_rtc.o
 .data          0x20000014        0x0 obj\release\spl\src\stm32f4xx_sdio.o
 .data          0x20000014        0x0 obj\release\spl\src\stm32f4xx_spi.o
 .data          0x20000014        0x0 obj\release\spl\src\stm32f4xx_syscfg.o
 .data          0x20000014        0x0 obj\release\spl\src\stm32f4xx_tim.o
 .data          0x20000014        0x0 obj\release\spl\src\stm32f4xx_usart.o
 .data          0x20000014        0x0 obj\release\spl\src\stm32f4xx_wwdg.o
 .data          0x20000014        0x0 obj\release\src\filter_audio_segnal.o
 .data          0x20000014        0x0 obj\release\src\filter_noise_reduction.o
 .data.indexVAD
                0x20000014        0x4 obj\release\src\filter_noise_reduction.o
                0x20000014                indexVAD
 .data          0x20000018        0x0 obj\release\src\io_audio.o
 .data          0x20000018        0x0 obj\release\src\io_display.o
 .data.col      0x20000018        0x4 obj\release\src\io_display.o
                0x20000018                col
 .data          0x2000001c        0x0 obj\release\src\main.o
 .data.switchPush
                0x2000001c        0x1 obj\release\src\main.o
                0x2000001c                switchPush
 .data.slowCt   0x2000001d        0x1 obj\release\src\main.o
                0x2000001d                slowCt
 .data          0x2000001e        0x0 obj\release\src\morsedecode.o
 *fill*         0x2000001e        0x2 
 .data.myBounce
                0x20000020        0x4 obj\release\src\morsedecode.o
                0x20000020                myBounce
 .data.averageWordGap
                0x20000024        0x4 obj\release\src\morsedecode.o
                0x20000024                averageWordGap
 .data.mySet    0x20000028       0x41 obj\release\src\morsedecode.o
                0x20000028                mySet
 *fill*         0x20000069        0x3 
 .data.waitWait
                0x2000006c        0x4 obj\release\src\morsedecode.o
                0x2000006c                waitWait
 .data.averageDah
                0x20000070        0x4 obj\release\src\morsedecode.o
                0x20000070                averageDah
 .data.justDid  0x20000074        0x1 obj\release\src\morsedecode.o
                0x20000074                justDid
 *fill*         0x20000075        0x3 
 .data.fullWait
                0x20000078        0x4 obj\release\src\morsedecode.o
                0x20000078                fullWait
 .data.dit      0x2000007c        0x4 obj\release\src\morsedecode.o
                0x2000007c                dit
 .data.ditOrDah
                0x20000080        0x1 obj\release\src\morsedecode.o
                0x20000080                ditOrDah
 .data.characterDone
                0x20000081        0x1 obj\release\src\morsedecode.o
                0x20000081                characterDone
 .data.recoveredChar
                0x20000082        0x1 obj\release\src\morsedecode.o
                0x20000082                recoveredChar
 .data          0x20000083        0x0 obj\release\src\startup_stm32f4xx.o
 .data          0x20000083        0x0 obj\release\src\system_stm32f4xx.o
 *fill*         0x20000083        0x1 
 .data.AHBPrescTable
                0x20000084       0x10 obj\release\src\system_stm32f4xx.o
                0x20000084                AHBPrescTable
 .data.SystemCoreClock
                0x20000094        0x4 obj\release\src\system_stm32f4xx.o
                0x20000094                SystemCoreClock
 .data          0x20000098        0x0 obj\release\src\tm_enc\tm_stm32f4_exti.o
 .data          0x20000098        0x0 obj\release\src\tm_enc\tm_stm32f4_rotary_encoder.o
 .data          0x20000098        0x0 obj\release\src\tm_spi\tm_stm32f4_disco.o
 .data          0x20000098        0x0 obj\release\src\tm_spi\tm_stm32f4_fonts.o
 .data.TM_Font_16x26
                0x20000098        0x8 obj\release\src\tm_spi\tm_stm32f4_fonts.o
                0x20000098                TM_Font_16x26
 .data.TM_Font_7x10
                0x200000a0        0x8 obj\release\src\tm_spi\tm_stm32f4_fonts.o
                0x200000a0                TM_Font_7x10
 .data.TM_Font_11x18
                0x200000a8        0x8 obj\release\src\tm_spi\tm_stm32f4_fonts.o
                0x200000a8                TM_Font_11x18
 .data          0x200000b0        0x0 obj\release\src\tm_spi\tm_stm32f4_gpio.o
 .data          0x200000b0        0x0 obj\release\src\tm_spi\tm_stm32f4_ili9341.o
 .data          0x200000b0        0x0 obj\release\src\tm_spi\tm_stm32f4_spi.o
 .data          0x200000b0        0x0 ..\CMSIS-4.5.0\CMSIS-4.5.0\CMSIS\Lib\GCC\libarm_cortexM4lf_math.a(arm_const_structs.o)
 .data          0x200000b0        0x0 ..\CMSIS-4.5.0\CMSIS-4.5.0\CMSIS\Lib\GCC\libarm_cortexM4lf_math.a(arm_common_tables.o)
 .data          0x200000b0        0x0 ..\CMSIS-4.5.0\CMSIS-4.5.0\CMSIS\Lib\GCC\libarm_cortexM4lf_math.a(arm_q15_to_float.o)
 .data          0x200000b0        0x0 ..\CMSIS-4.5.0\CMSIS-4.5.0\CMSIS\Lib\GCC\libarm_cortexM4lf_math.a(arm_float_to_q15.o)
 .data          0x200000b0        0x0 ..\CMSIS-4.5.0\CMSIS-4.5.0\CMSIS\Lib\GCC\libarm_cortexM4lf_math.a(arm_max_f32.o)
 .data          0x200000b0        0x0 ..\CMSIS-4.5.0\CMSIS-4.5.0\CMSIS\Lib\GCC\libarm_cortexM4lf_math.a(arm_cfft_f32.o)
 .data          0x200000b0        0x0 ..\CMSIS-4.5.0\CMSIS-4.5.0\CMSIS\Lib\GCC\libarm_cortexM4lf_math.a(arm_lms_init_f32.o)
 .data          0x200000b0        0x0 ..\CMSIS-4.5.0\CMSIS-4.5.0\CMSIS\Lib\GCC\libarm_cortexM4lf_math.a(arm_lms_f32.o)
 .data          0x200000b0        0x0 ..\CMSIS-4.5.0\CMSIS-4.5.0\CMSIS\Lib\GCC\libarm_cortexM4lf_math.a(arm_fir_init_f32.o)
 .data          0x200000b0        0x0 ..\CMSIS-4.5.0\CMSIS-4.5.0\CMSIS\Lib\GCC\libarm_cortexM4lf_math.a(arm_fir_f32.o)
 .data          0x200000b0        0x0 ..\CMSIS-4.5.0\CMSIS-4.5.0\CMSIS\Lib\GCC\libarm_cortexM4lf_math.a(arm_cmplx_mag_f32.o)
 .data          0x200000b0        0x0 ..\CMSIS-4.5.0\CMSIS-4.5.0\CMSIS\Lib\GCC\libarm_cortexM4lf_math.a(arm_sin_f32.o)
 .data          0x200000b0        0x0 ..\CMSIS-4.5.0\CMSIS-4.5.0\CMSIS\Lib\GCC\libarm_cortexM4lf_math.a(arm_cos_f32.o)
 .data          0x200000b0        0x0 ..\CMSIS-4.5.0\CMSIS-4.5.0\CMSIS\Lib\GCC\libarm_cortexM4lf_math.a(arm_bitreversal2.o)
 .data          0x200000b0        0x0 ..\CMSIS-4.5.0\CMSIS-4.5.0\CMSIS\Lib\GCC\libarm_cortexM4lf_math.a(arm_cfft_radix8_f32.o)
 .data          0x200000b0        0x0 c:/program files (x86)/embitz/1.11/share/em_armgcc/bin/../lib/gcc/arm-none-eabi/5.4.1/../../../../arm-none-eabi/lib/armv7e-m/fpu\libm.a(lib_a-cargf.o)
 .data          0x200000b0        0x0 c:/program files (x86)/embitz/1.11/share/em_armgcc/bin/../lib/gcc/arm-none-eabi/5.4.1/../../../../arm-none-eabi/lib/armv7e-m/fpu\libm.a(lib_a-cimagf.o)
 .data          0x200000b0        0x0 c:/program files (x86)/embitz/1.11/share/em_armgcc/bin/../lib/gcc/arm-none-eabi/5.4.1/../../../../arm-none-eabi/lib/armv7e-m/fpu\libm.a(lib_a-crealf.o)
 .data          0x200000b0        0x0 c:/program files (x86)/embitz/1.11/share/em_armgcc/bin/../lib/gcc/arm-none-eabi/5.4.1/../../../../arm-none-eabi/lib/armv7e-m/fpu\libm.a(lib_a-wf_atan2.o)
 .data          0x200000b0        0x0 c:/program files (x86)/embitz/1.11/share/em_armgcc/bin/../lib/gcc/arm-none-eabi/5.4.1/../../../../arm-none-eabi/lib/armv7e-m/fpu\libm.a(lib_a-wf_sqrt.o)
 .data          0x200000b0        0x0 c:/program files (x86)/embitz/1.11/share/em_armgcc/bin/../lib/gcc/arm-none-eabi/5.4.1/../../../../arm-none-eabi/lib/armv7e-m/fpu\libm.a(lib_a-ef_atan2.o)
 .data          0x200000b0        0x0 c:/program files (x86)/embitz/1.11/share/em_armgcc/bin/../lib/gcc/arm-none-eabi/5.4.1/../../../../arm-none-eabi/lib/armv7e-m/fpu\libm.a(lib_a-ef_sqrt.o)
 .data          0x200000b0        0x0 c:/program files (x86)/embitz/1.11/share/em_armgcc/bin/../lib/gcc/arm-none-eabi/5.4.1/../../../../arm-none-eabi/lib/armv7e-m/fpu\libm.a(lib_a-s_lib_ver.o)
 .data.__fdlib_version
                0x200000b0        0x1 c:/program files (x86)/embitz/1.11/share/em_armgcc/bin/../lib/gcc/arm-none-eabi/5.4.1/../../../../arm-none-eabi/lib/armv7e-m/fpu\libm.a(lib_a-s_lib_ver.o)
                0x200000b0                __fdlib_version
 .data          0x200000b1        0x0 c:/program files (x86)/embitz/1.11/share/em_armgcc/bin/../lib/gcc/arm-none-eabi/5.4.1/../../../../arm-none-eabi/lib/armv7e-m/fpu\libm.a(lib_a-s_matherr.o)
 .data          0x200000b1        0x0 c:/program files (x86)/embitz/1.11/share/em_armgcc/bin/../lib/gcc/arm-none-eabi/5.4.1/../../../../arm-none-eabi/lib/armv7e-m/fpu\libm.a(lib_a-sf_atan.o)
 .data          0x200000b1        0x0 c:/program files (x86)/embitz/1.11/share/em_armgcc/bin/../lib/gcc/arm-none-eabi/5.4.1/../../../../arm-none-eabi/lib/armv7e-m/fpu\libm.a(lib_a-sf_fabs.o)
 .data          0x200000b1        0x0 c:/program files (x86)/embitz/1.11/share/em_armgcc/bin/../lib/gcc/arm-none-eabi/5.4.1/armv7e-m/fpu\libgcc.a(_arm_addsubdf3.o)
 .data          0x200000b1        0x0 c:/program files (x86)/embitz/1.11/share/em_armgcc/bin/../lib/gcc/arm-none-eabi/5.4.1/armv7e-m/fpu\libgcc.a(_arm_muldivdf3.o)
 .data          0x200000b1        0x0 c:/program files (x86)/embitz/1.11/share/em_armgcc/bin/../lib/gcc/arm-none-eabi/5.4.1/armv7e-m/fpu\libgcc.a(_arm_truncdfsf2.o)
 .data          0x200000b1        0x0 c:/program files (x86)/embitz/1.11/share/em_armgcc/bin/../lib/gcc/arm-none-eabi/5.4.1/../../../../arm-none-eabi/lib/armv7e-m/fpu\libg_n.a(lib_a-errno.o)
 .data          0x200000b1        0x0 c:/program files (x86)/embitz/1.11/share/em_armgcc/bin/../lib/gcc/arm-none-eabi/5.4.1/../../../../arm-none-eabi/lib/armv7e-m/fpu\libg_n.a(lib_a-exit.o)
 .data          0x200000b1        0x0 c:/program files (x86)/embitz/1.11/share/em_armgcc/bin/../lib/gcc/arm-none-eabi/5.4.1/../../../../arm-none-eabi/lib/armv7e-m/fpu\libg_n.a(lib_a-impure.o)
 *fill*         0x200000b1        0x3 
 .data.impure_data
                0x200000b4       0x60 c:/program files (x86)/embitz/1.11/share/em_armgcc/bin/../lib/gcc/arm-none-eabi/5.4.1/../../../../arm-none-eabi/lib/armv7e-m/fpu\libg_n.a(lib_a-impure.o)
 .data._impure_ptr
                0x20000114        0x4 c:/program files (x86)/embitz/1.11/share/em_armgcc/bin/../lib/gcc/arm-none-eabi/5.4.1/../../../../arm-none-eabi/lib/armv7e-m/fpu\libg_n.a(lib_a-impure.o)
                0x20000114                _impure_ptr
 .data          0x20000118        0x0 c:/program files (x86)/embitz/1.11/share/em_armgcc/bin/../lib/gcc/arm-none-eabi/5.4.1/../../../../arm-none-eabi/lib/armv7e-m/fpu\libg_n.a(lib_a-init.o)
 .data          0x20000118        0x0 c:/program files (x86)/embitz/1.11/share/em_armgcc/bin/../lib/gcc/arm-none-eabi/5.4.1/../../../../arm-none-eabi/lib/armv7e-m/fpu\libg_n.a(lib_a-memset.o)
 .data          0x20000118        0x0 c:/program files (x86)/embitz/1.11/share/em_armgcc/bin/../lib/gcc/arm-none-eabi/5.4.1/../../../../arm-none-eabi/lib/armv7e-m/fpu\libg_n.a(lib_a-sprintf.o)
 .data          0x20000118        0x0 c:/program files (x86)/embitz/1.11/share/em_armgcc/bin/../lib/gcc/arm-none-eabi/5.4.1/../../../../arm-none-eabi/lib/armv7e-m/fpu\libg_n.a(lib_a-nano-svfprintf.o)
 .data          0x20000118        0x0 c:/program files (x86)/embitz/1.11/share/em_armgcc/bin/../lib/gcc/arm-none-eabi/5.4.1/../../../../arm-none-eabi/lib/armv7e-m/fpu\libg_n.a(lib_a-nano-vfprintf_i.o)
 .data          0x20000118        0x0 c:/program files (x86)/embitz/1.11/share/em_armgcc/bin/../lib/gcc/arm-none-eabi/5.4.1/../../../../arm-none-eabi/lib/armv7e-m/fpu\libg_n.a(lib_a-memchr.o)
 .data          0x20000118        0x0 c:/program files (x86)/embitz/1.11/share/em_armgcc/bin/../lib/gcc/arm-none-eabi/5.4.1/../../../../arm-none-eabi/lib/armv7e-m/fpu\libg_n.a(lib_a-memcpy-stub.o)
 .data          0x20000118        0x0 c:/program files (x86)/embitz/1.11/share/em_armgcc/bin/../lib/gcc/arm-none-eabi/5.4.1/../../../../arm-none-eabi/lib/armv7e-m/fpu\libg_n.a(lib_a-memmove.o)
 .data          0x20000118        0x0 c:/program files (x86)/embitz/1.11/share/em_armgcc/bin/../lib/gcc/arm-none-eabi/5.4.1/../../../../arm-none-eabi/lib/armv7e-m/fpu\libg_n.a(lib_a-nano-freer.o)
 .data          0x20000118        0x0 c:/program files (x86)/embitz/1.11/share/em_armgcc/bin/../lib/gcc/arm-none-eabi/5.4.1/../../../../arm-none-eabi/lib/armv7e-m/fpu\libg_n.a(lib_a-nano-mallocr.o)
 .data          0x20000118        0x0 c:/program files (x86)/embitz/1.11/share/em_armgcc/bin/../lib/gcc/arm-none-eabi/5.4.1/../../../../arm-none-eabi/lib/armv7e-m/fpu\libg_n.a(lib_a-nano-reallocr.o)
 .data          0x20000118        0x0 c:/program files (x86)/embitz/1.11/share/em_armgcc/bin/../lib/gcc/arm-none-eabi/5.4.1/../../../../arm-none-eabi/lib/armv7e-m/fpu\libg_n.a(lib_a-sbrkr.o)
 .data          0x20000118        0x0 c:/program files (x86)/embitz/1.11/share/em_armgcc/bin/../lib/gcc/arm-none-eabi/5.4.1/../../../../arm-none-eabi/lib/armv7e-m/fpu\libg_n.a(lib_a-mlock.o)
 .data          0x20000118        0x0 c:/program files (x86)/embitz/1.11/share/em_armgcc/bin/../lib/gcc/arm-none-eabi/5.4.1/../../../../arm-none-eabi/lib/armv7e-m/fpu\libg_n.a(lib_a-nano-msizer.o)
 .data          0x20000118        0x0 c:/program files (x86)/embitz/1.11/share/em_armgcc/bin/../lib/gcc/arm-none-eabi/5.4.1/../../../../arm-none-eabi/lib/armv7e-m/fpu\libg_n.a(lib_a-reent.o)
 .data          0x20000118        0x0 c:/program files (x86)/embitz/1.11/share/em_armgcc/bin/../lib/gcc/arm-none-eabi/5.4.1/../../../../arm-none-eabi/lib/armv7e-m/fpu\libnosys_s.a(sbrk.o)
 .data          0x20000118        0x0 c:/program files (x86)/embitz/1.11/share/em_armgcc/bin/../lib/gcc/arm-none-eabi/5.4.1/../../../../arm-none-eabi/lib/armv7e-m/fpu\libnosys_s.a(_exit.o)
 .data          0x20000118        0x0 c:/program files (x86)/embitz/1.11/share/em_armgcc/bin/../lib/gcc/arm-none-eabi/5.4.1/armv7e-m/fpu/crtend.o
 .data          0x20000118        0x0 c:/program files (x86)/embitz/1.11/share/em_armgcc/bin/../lib/gcc/arm-none-eabi/5.4.1/armv7e-m/fpu/crtn.o
                0x20000118                . = ALIGN (0x4)
                0x20000118                PROVIDE (__preinit_array_start, .)
 *(.preinit_array)
                0x20000118                PROVIDE (__preinit_array_end, .)
                0x20000118                . = ALIGN (0x4)
                0x20000118                PROVIDE (__init_array_start, .)
 *(SORT(.init_array.*))
 *(.init_array)
 .init_array    0x20000118        0x4 c:/program files (x86)/embitz/1.11/share/em_armgcc/bin/../lib/gcc/arm-none-eabi/5.4.1/armv7e-m/fpu/crtbegin.o
                0x2000011c                PROVIDE (__init_array_end, .)
                0x2000011c                . = ALIGN (0x4)
                [!provide]                PROVIDE (__fini_array_start, .)
 *(SORT(.fini_array.*))
 *(.fini_array)
 .fini_array    0x2000011c        0x4 c:/program files (x86)/embitz/1.11/share/em_armgcc/bin/../lib/gcc/arm-none-eabi/5.4.1/armv7e-m/fpu/crtbegin.o
                [!provide]                PROVIDE (__fini_array_end, .)
                0x20000120                . = ALIGN (0x4)
                0x20000120                __data_end__ = .

.jcr            0x20000120        0x4 load address 0x08049644
 .jcr           0x20000120        0x0 c:/program files (x86)/embitz/1.11/share/em_armgcc/bin/../lib/gcc/arm-none-eabi/5.4.1/armv7e-m/fpu/crtbegin.o
 .jcr           0x20000120        0x4 c:/program files (x86)/embitz/1.11/share/em_armgcc/bin/../lib/gcc/arm-none-eabi/5.4.1/armv7e-m/fpu/crtend.o

.igot.plt       0x20000124        0x0 load address 0x08049648
 .igot.plt      0x20000124        0x0 c:/program files (x86)/embitz/1.11/share/em_armgcc/bin/../lib/gcc/arm-none-eabi/5.4.1/armv7e-m/fpu/crtbegin.o

.bss            0x20000124     0x5cd0 load address 0x08049648
                0x20000124                __bss_start__ = .
 *(.bss*)
 .bss           0x20000124        0x0 c:/program files (x86)/embitz/1.11/share/em_armgcc/bin/../lib/gcc/arm-none-eabi/5.4.1/armv7e-m/fpu/crti.o
 .bss           0x20000124       0x1c c:/program files (x86)/embitz/1.11/share/em_armgcc/bin/../lib/gcc/arm-none-eabi/5.4.1/armv7e-m/fpu/crtbegin.o
 .bss           0x20000140        0x0 c:/program files (x86)/embitz/1.11/share/em_armgcc/bin/../lib/gcc/arm-none-eabi/5.4.1/../../../../arm-none-eabi/lib/armv7e-m/fpu/crt0.o
 .bss           0x20000140        0x0 obj\release\spl\src\misc.o
 .bss           0x20000140        0x0 obj\release\spl\src\stm32f4xx_adc.o
 .bss           0x20000140        0x0 obj\release\spl\src\stm32f4xx_can.o
 .bss           0x20000140        0x0 obj\release\spl\src\stm32f4xx_crc.o
 .bss           0x20000140        0x0 obj\release\spl\src\stm32f4xx_cryp.o
 .bss           0x20000140        0x0 obj\release\spl\src\stm32f4xx_cryp_aes.o
 .bss           0x20000140        0x0 obj\release\spl\src\stm32f4xx_cryp_des.o
 .bss           0x20000140        0x0 obj\release\spl\src\stm32f4xx_cryp_tdes.o
 .bss           0x20000140        0x0 obj\release\spl\src\stm32f4xx_dac.o
 .bss           0x20000140        0x0 obj\release\spl\src\stm32f4xx_dbgmcu.o
 .bss           0x20000140        0x0 obj\release\spl\src\stm32f4xx_dcmi.o
 .bss           0x20000140        0x0 obj\release\spl\src\stm32f4xx_dma.o
 .bss           0x20000140        0x0 obj\release\spl\src\stm32f4xx_exti.o
 .bss           0x20000140        0x0 obj\release\spl\src\stm32f4xx_flash.o
 .bss           0x20000140        0x0 obj\release\spl\src\stm32f4xx_fsmc.o
 .bss           0x20000140        0x0 obj\release\spl\src\stm32f4xx_gpio.o
 .bss           0x20000140        0x0 obj\release\spl\src\stm32f4xx_hash.o
 .bss           0x20000140        0x0 obj\release\spl\src\stm32f4xx_hash_md5.o
 .bss           0x20000140        0x0 obj\release\spl\src\stm32f4xx_hash_sha1.o
 .bss           0x20000140        0x0 obj\release\spl\src\stm32f4xx_i2c.o
 .bss           0x20000140        0x0 obj\release\spl\src\stm32f4xx_iwdg.o
 .bss           0x20000140        0x0 obj\release\spl\src\stm32f4xx_pwr.o
 .bss           0x20000140        0x0 obj\release\spl\src\stm32f4xx_rcc.o
 .bss           0x20000140        0x0 obj\release\spl\src\stm32f4xx_rng.o
 .bss           0x20000140        0x0 obj\release\spl\src\stm32f4xx_rtc.o
 .bss           0x20000140        0x0 obj\release\spl\src\stm32f4xx_sdio.o
 .bss           0x20000140        0x0 obj\release\spl\src\stm32f4xx_spi.o
 .bss           0x20000140        0x0 obj\release\spl\src\stm32f4xx_syscfg.o
 .bss           0x20000140        0x0 obj\release\spl\src\stm32f4xx_tim.o
 .bss           0x20000140        0x0 obj\release\spl\src\stm32f4xx_usart.o
 .bss           0x20000140        0x0 obj\release\spl\src\stm32f4xx_wwdg.o
 .bss           0x20000140        0x0 obj\release\src\filter_audio_segnal.o
 .bss           0x20000140        0x0 obj\release\src\filter_noise_reduction.o
 .bss.cw_tone_val
                0x20000140        0x4 obj\release\src\filter_noise_reduction.o
                0x20000140                cw_tone_val
 .bss.lasCmdDnr
                0x20000144        0x4 obj\release\src\filter_noise_reduction.o
                0x20000144                lasCmdDnr
 .bss.Threshold_max
                0x20000148        0x4 obj\release\src\filter_noise_reduction.o
                0x20000148                Threshold_max
 .bss.POW_VALUE_min
                0x2000014c        0x4 obj\release\src\filter_noise_reduction.o
                0x2000014c                POW_VALUE_min
 .bss.POW_VALUE_max
                0x20000150        0x4 obj\release\src\filter_noise_reduction.o
                0x20000150                POW_VALUE_max
 .bss.energyChkPeriod_idx
                0x20000154        0x4 obj\release\src\filter_noise_reduction.o
                0x20000154                energyChkPeriod_idx
 .bss.cw_tone_idx
                0x20000158        0x4 obj\release\src\filter_noise_reduction.o
                0x20000158                cw_tone_idx
 .bss.mediumValue
                0x2000015c        0x4 obj\release\src\filter_noise_reduction.o
                0x2000015c                mediumValue
 .bss.level     0x20000160        0x4 obj\release\src\filter_noise_reduction.o
                0x20000160                level
 .bss.thresholdChkPeriod_idx
                0x20000164        0x4 obj\release\src\filter_noise_reduction.o
                0x20000164                thresholdChkPeriod_idx
 .bss.POW_VALUE
                0x20000168        0x4 obj\release\src\filter_noise_reduction.o
                0x20000168                POW_VALUE
 .bss.TH_VALUE  0x2000016c        0x4 obj\release\src\filter_noise_reduction.o
                0x2000016c                TH_VALUE
 .bss.cw_tone   0x20000170        0x4 obj\release\src\filter_noise_reduction.o
                0x20000170                cw_tone
 .bss           0x20000174        0x0 obj\release\src\io_audio.o
 .bss           0x20000174        0x0 obj\release\src\io_display.o
 .bss.row       0x20000174        0x4 obj\release\src\io_display.o
                0x20000174                row
 .bss           0x20000178        0x0 obj\release\src\main.o
 .bss.firStateF32_3
                0x20000178      0x440 obj\release\src\main.o
 .bss.firStateF32_4
                0x200005b8      0x440 obj\release\src\main.o
 .bss.ict       0x200009f8        0x4 obj\release\src\main.o
                0x200009f8                ict
 .bss.iCurBuffIdx
                0x200009fc        0x2 obj\release\src\main.o
                0x200009fc                iCurBuffIdx
 .bss.rowCt     0x200009fe        0x1 obj\release\src\main.o
                0x200009fe                rowCt
 .bss.iCmdDnr   0x200009ff        0x1 obj\release\src\main.o
                0x200009ff                iCmdDnr
 .bss.firStateF32
                0x20000a00      0x460 obj\release\src\main.o
 .bss.Buffer1   0x20000e60      0x400 obj\release\src\main.o
 .bss.iCmdFnc   0x20001260        0x1 obj\release\src\main.o
                0x20001260                iCmdFnc
 .bss.menu_voice
                0x20001261        0x1 obj\release\src\main.o
                0x20001261                menu_voice
 *fill*         0x20001262        0x2 
 .bss.BufferOut
                0x20001264      0x400 obj\release\src\main.o
 .bss.iCmdScp   0x20001664        0x1 obj\release\src\main.o
                0x20001664                iCmdScp
 *fill*         0x20001665        0x3 
 .bss.iLastict  0x20001668        0x4 obj\release\src\main.o
                0x20001668                iLastict
 .bss.BufferIn  0x2000166c      0x400 obj\release\src\main.o
 .bss.iCmdFlt   0x20001a6c        0x1 obj\release\src\main.o
                0x20001a6c                iCmdFlt
 *fill*         0x20001a6d        0x3 
 .bss.RE1_Data  0x20001a70       0x1c obj\release\src\main.o
 .bss.firStateF32_2
                0x20001a8c      0x590 obj\release\src\main.o
 .bss           0x2000201c        0x0 obj\release\src\morsedecode.o
 .bss.newWord   0x2000201c        0x4 obj\release\src\morsedecode.o
                0x2000201c                newWord
 .bss.startUpTime
                0x20002020        0x4 obj\release\src\morsedecode.o
                0x20002020                startUpTime
 .bss.bufferOut
                0x20002024        0x4 obj\release\src\morsedecode.o
                0x20002024                bufferOut
 .bss.lastDahTime
                0x20002028        0x4 obj\release\src\morsedecode.o
                0x20002028                lastDahTime
 .bss.myNum     0x2000202c        0x4 obj\release\src\morsedecode.o
                0x2000202c                myNum
 .bss.averageDahTime
                0x20002030        0x4 obj\release\src\morsedecode.o
                0x20002030                averageDahTime
 .bss.startDownTime
                0x20002034        0x4 obj\release\src\morsedecode.o
                0x20002034                startDownTime
 .bss.downTime  0x20002038        0x4 obj\release\src\morsedecode.o
                0x20002038                downTime
 .bss.lastDitTime
                0x2000203c        0x4 obj\release\src\morsedecode.o
                0x2000203c                lastDitTime
 .bss.upTime    0x20002040        0x4 obj\release\src\morsedecode.o
                0x20002040                upTime
 .bss           0x20002044        0x0 obj\release\src\startup_stm32f4xx.o
 .bss           0x20002044        0x0 obj\release\src\system_stm32f4xx.o
 .bss           0x20002044        0x0 obj\release\src\tm_enc\tm_stm32f4_exti.o
 .bss           0x20002044        0x0 obj\release\src\tm_enc\tm_stm32f4_rotary_encoder.o
 .bss           0x20002044        0x0 obj\release\src\tm_spi\tm_stm32f4_disco.o
 .bss.TM_INT_DISCO_ButtonPressed
                0x20002044        0x1 obj\release\src\tm_spi\tm_stm32f4_disco.o
                0x20002044                TM_INT_DISCO_ButtonPressed
 .bss           0x20002045        0x0 obj\release\src\tm_spi\tm_stm32f4_fonts.o
 .bss           0x20002045        0x0 obj\release\src\tm_spi\tm_stm32f4_gpio.o
 *fill*         0x20002045        0x3 
 .bss.GPIO_InitStruct
                0x20002048        0x8 obj\release\src\tm_spi\tm_stm32f4_gpio.o
 .bss           0x20002050        0x0 obj\release\src\tm_spi\tm_stm32f4_ili9341.o
 .bss.ILI9341_INT_CalledFromPuts
                0x20002050        0x1 obj\release\src\tm_spi\tm_stm32f4_ili9341.o
                0x20002050                ILI9341_INT_CalledFromPuts
 .bss           0x20002051        0x0 obj\release\src\tm_spi\tm_stm32f4_spi.o
 .bss           0x20002051        0x0 ..\CMSIS-4.5.0\CMSIS-4.5.0\CMSIS\Lib\GCC\libarm_cortexM4lf_math.a(arm_const_structs.o)
 .bss           0x20002051        0x0 ..\CMSIS-4.5.0\CMSIS-4.5.0\CMSIS\Lib\GCC\libarm_cortexM4lf_math.a(arm_common_tables.o)
 .bss           0x20002051        0x0 ..\CMSIS-4.5.0\CMSIS-4.5.0\CMSIS\Lib\GCC\libarm_cortexM4lf_math.a(arm_q15_to_float.o)
 .bss           0x20002051        0x0 ..\CMSIS-4.5.0\CMSIS-4.5.0\CMSIS\Lib\GCC\libarm_cortexM4lf_math.a(arm_float_to_q15.o)
 .bss           0x20002051        0x0 ..\CMSIS-4.5.0\CMSIS-4.5.0\CMSIS\Lib\GCC\libarm_cortexM4lf_math.a(arm_max_f32.o)
 .bss           0x20002051        0x0 ..\CMSIS-4.5.0\CMSIS-4.5.0\CMSIS\Lib\GCC\libarm_cortexM4lf_math.a(arm_cfft_f32.o)
 .bss           0x20002051        0x0 ..\CMSIS-4.5.0\CMSIS-4.5.0\CMSIS\Lib\GCC\libarm_cortexM4lf_math.a(arm_lms_init_f32.o)
 .bss           0x20002051        0x0 ..\CMSIS-4.5.0\CMSIS-4.5.0\CMSIS\Lib\GCC\libarm_cortexM4lf_math.a(arm_lms_f32.o)
 .bss           0x20002051        0x0 ..\CMSIS-4.5.0\CMSIS-4.5.0\CMSIS\Lib\GCC\libarm_cortexM4lf_math.a(arm_fir_init_f32.o)
 .bss           0x20002051        0x0 ..\CMSIS-4.5.0\CMSIS-4.5.0\CMSIS\Lib\GCC\libarm_cortexM4lf_math.a(arm_fir_f32.o)
 .bss           0x20002051        0x0 ..\CMSIS-4.5.0\CMSIS-4.5.0\CMSIS\Lib\GCC\libarm_cortexM4lf_math.a(arm_cmplx_mag_f32.o)
 .bss           0x20002051        0x0 ..\CMSIS-4.5.0\CMSIS-4.5.0\CMSIS\Lib\GCC\libarm_cortexM4lf_math.a(arm_sin_f32.o)
 .bss           0x20002051        0x0 ..\CMSIS-4.5.0\CMSIS-4.5.0\CMSIS\Lib\GCC\libarm_cortexM4lf_math.a(arm_cos_f32.o)
 .bss           0x20002051        0x0 ..\CMSIS-4.5.0\CMSIS-4.5.0\CMSIS\Lib\GCC\libarm_cortexM4lf_math.a(arm_bitreversal2.o)
 .bss           0x20002051        0x0 ..\CMSIS-4.5.0\CMSIS-4.5.0\CMSIS\Lib\GCC\libarm_cortexM4lf_math.a(arm_cfft_radix8_f32.o)
 .bss           0x20002051        0x0 c:/program files (x86)/embitz/1.11/share/em_armgcc/bin/../lib/gcc/arm-none-eabi/5.4.1/../../../../arm-none-eabi/lib/armv7e-m/fpu\libm.a(lib_a-cargf.o)
 .bss           0x20002051        0x0 c:/program files (x86)/embitz/1.11/share/em_armgcc/bin/../lib/gcc/arm-none-eabi/5.4.1/../../../../arm-none-eabi/lib/armv7e-m/fpu\libm.a(lib_a-cimagf.o)
 .bss           0x20002051        0x0 c:/program files (x86)/embitz/1.11/share/em_armgcc/bin/../lib/gcc/arm-none-eabi/5.4.1/../../../../arm-none-eabi/lib/armv7e-m/fpu\libm.a(lib_a-crealf.o)
 .bss           0x20002051        0x0 c:/program files (x86)/embitz/1.11/share/em_armgcc/bin/../lib/gcc/arm-none-eabi/5.4.1/../../../../arm-none-eabi/lib/armv7e-m/fpu\libm.a(lib_a-wf_atan2.o)
 .bss           0x20002051        0x0 c:/program files (x86)/embitz/1.11/share/em_armgcc/bin/../lib/gcc/arm-none-eabi/5.4.1/../../../../arm-none-eabi/lib/armv7e-m/fpu\libm.a(lib_a-wf_sqrt.o)
 .bss           0x20002051        0x0 c:/program files (x86)/embitz/1.11/share/em_armgcc/bin/../lib/gcc/arm-none-eabi/5.4.1/../../../../arm-none-eabi/lib/armv7e-m/fpu\libm.a(lib_a-ef_atan2.o)
 .bss           0x20002051        0x0 c:/program files (x86)/embitz/1.11/share/em_armgcc/bin/../lib/gcc/arm-none-eabi/5.4.1/../../../../arm-none-eabi/lib/armv7e-m/fpu\libm.a(lib_a-ef_sqrt.o)
 .bss           0x20002051        0x0 c:/program files (x86)/embitz/1.11/share/em_armgcc/bin/../lib/gcc/arm-none-eabi/5.4.1/../../../../arm-none-eabi/lib/armv7e-m/fpu\libm.a(lib_a-s_lib_ver.o)
 .bss           0x20002051        0x0 c:/program files (x86)/embitz/1.11/share/em_armgcc/bin/../lib/gcc/arm-none-eabi/5.4.1/../../../../arm-none-eabi/lib/armv7e-m/fpu\libm.a(lib_a-s_matherr.o)
 .bss           0x20002051        0x0 c:/program files (x86)/embitz/1.11/share/em_armgcc/bin/../lib/gcc/arm-none-eabi/5.4.1/../../../../arm-none-eabi/lib/armv7e-m/fpu\libm.a(lib_a-sf_atan.o)
 .bss           0x20002051        0x0 c:/program files (x86)/embitz/1.11/share/em_armgcc/bin/../lib/gcc/arm-none-eabi/5.4.1/../../../../arm-none-eabi/lib/armv7e-m/fpu\libm.a(lib_a-sf_fabs.o)
 .bss           0x20002051        0x0 c:/program files (x86)/embitz/1.11/share/em_armgcc/bin/../lib/gcc/arm-none-eabi/5.4.1/armv7e-m/fpu\libgcc.a(_arm_addsubdf3.o)
 .bss           0x20002051        0x0 c:/program files (x86)/embitz/1.11/share/em_armgcc/bin/../lib/gcc/arm-none-eabi/5.4.1/armv7e-m/fpu\libgcc.a(_arm_muldivdf3.o)
 .bss           0x20002051        0x0 c:/program files (x86)/embitz/1.11/share/em_armgcc/bin/../lib/gcc/arm-none-eabi/5.4.1/armv7e-m/fpu\libgcc.a(_arm_truncdfsf2.o)
 .bss           0x20002051        0x0 c:/program files (x86)/embitz/1.11/share/em_armgcc/bin/../lib/gcc/arm-none-eabi/5.4.1/../../../../arm-none-eabi/lib/armv7e-m/fpu\libg_n.a(lib_a-errno.o)
 .bss           0x20002051        0x0 c:/program files (x86)/embitz/1.11/share/em_armgcc/bin/../lib/gcc/arm-none-eabi/5.4.1/../../../../arm-none-eabi/lib/armv7e-m/fpu\libg_n.a(lib_a-exit.o)
 .bss           0x20002051        0x0 c:/program files (x86)/embitz/1.11/share/em_armgcc/bin/../lib/gcc/arm-none-eabi/5.4.1/../../../../arm-none-eabi/lib/armv7e-m/fpu\libg_n.a(lib_a-impure.o)
 .bss           0x20002051        0x0 c:/program files (x86)/embitz/1.11/share/em_armgcc/bin/../lib/gcc/arm-none-eabi/5.4.1/../../../../arm-none-eabi/lib/armv7e-m/fpu\libg_n.a(lib_a-init.o)
 .bss           0x20002051        0x0 c:/program files (x86)/embitz/1.11/share/em_armgcc/bin/../lib/gcc/arm-none-eabi/5.4.1/../../../../arm-none-eabi/lib/armv7e-m/fpu\libg_n.a(lib_a-memset.o)
 .bss           0x20002051        0x0 c:/program files (x86)/embitz/1.11/share/em_armgcc/bin/../lib/gcc/arm-none-eabi/5.4.1/../../../../arm-none-eabi/lib/armv7e-m/fpu\libg_n.a(lib_a-sprintf.o)
 .bss           0x20002051        0x0 c:/program files (x86)/embitz/1.11/share/em_armgcc/bin/../lib/gcc/arm-none-eabi/5.4.1/../../../../arm-none-eabi/lib/armv7e-m/fpu\libg_n.a(lib_a-nano-svfprintf.o)
 .bss           0x20002051        0x0 c:/program files (x86)/embitz/1.11/share/em_armgcc/bin/../lib/gcc/arm-none-eabi/5.4.1/../../../../arm-none-eabi/lib/armv7e-m/fpu\libg_n.a(lib_a-nano-vfprintf_i.o)
 .bss           0x20002051        0x0 c:/program files (x86)/embitz/1.11/share/em_armgcc/bin/../lib/gcc/arm-none-eabi/5.4.1/../../../../arm-none-eabi/lib/armv7e-m/fpu\libg_n.a(lib_a-memchr.o)
 .bss           0x20002051        0x0 c:/program files (x86)/embitz/1.11/share/em_armgcc/bin/../lib/gcc/arm-none-eabi/5.4.1/../../../../arm-none-eabi/lib/armv7e-m/fpu\libg_n.a(lib_a-memcpy-stub.o)
 .bss           0x20002051        0x0 c:/program files (x86)/embitz/1.11/share/em_armgcc/bin/../lib/gcc/arm-none-eabi/5.4.1/../../../../arm-none-eabi/lib/armv7e-m/fpu\libg_n.a(lib_a-memmove.o)
 .bss           0x20002051        0x0 c:/program files (x86)/embitz/1.11/share/em_armgcc/bin/../lib/gcc/arm-none-eabi/5.4.1/../../../../arm-none-eabi/lib/armv7e-m/fpu\libg_n.a(lib_a-nano-freer.o)
 .bss           0x20002051        0x0 c:/program files (x86)/embitz/1.11/share/em_armgcc/bin/../lib/gcc/arm-none-eabi/5.4.1/../../../../arm-none-eabi/lib/armv7e-m/fpu\libg_n.a(lib_a-nano-mallocr.o)
 *fill*         0x20002051        0x3 
 .bss.__malloc_sbrk_start
                0x20002054        0x4 c:/program files (x86)/embitz/1.11/share/em_armgcc/bin/../lib/gcc/arm-none-eabi/5.4.1/../../../../arm-none-eabi/lib/armv7e-m/fpu\libg_n.a(lib_a-nano-mallocr.o)
                0x20002054                __malloc_sbrk_start
 .bss.__malloc_free_list
                0x20002058        0x4 c:/program files (x86)/embitz/1.11/share/em_armgcc/bin/../lib/gcc/arm-none-eabi/5.4.1/../../../../arm-none-eabi/lib/armv7e-m/fpu\libg_n.a(lib_a-nano-mallocr.o)
                0x20002058                __malloc_free_list
 .bss           0x2000205c        0x0 c:/program files (x86)/embitz/1.11/share/em_armgcc/bin/../lib/gcc/arm-none-eabi/5.4.1/../../../../arm-none-eabi/lib/armv7e-m/fpu\libg_n.a(lib_a-nano-reallocr.o)
 .bss           0x2000205c        0x0 c:/program files (x86)/embitz/1.11/share/em_armgcc/bin/../lib/gcc/arm-none-eabi/5.4.1/../../../../arm-none-eabi/lib/armv7e-m/fpu\libg_n.a(lib_a-sbrkr.o)
 .bss           0x2000205c        0x0 c:/program files (x86)/embitz/1.11/share/em_armgcc/bin/../lib/gcc/arm-none-eabi/5.4.1/../../../../arm-none-eabi/lib/armv7e-m/fpu\libg_n.a(lib_a-mlock.o)
 .bss           0x2000205c        0x0 c:/program files (x86)/embitz/1.11/share/em_armgcc/bin/../lib/gcc/arm-none-eabi/5.4.1/../../../../arm-none-eabi/lib/armv7e-m/fpu\libg_n.a(lib_a-nano-msizer.o)
 .bss           0x2000205c        0x0 c:/program files (x86)/embitz/1.11/share/em_armgcc/bin/../lib/gcc/arm-none-eabi/5.4.1/../../../../arm-none-eabi/lib/armv7e-m/fpu\libg_n.a(lib_a-reent.o)
 .bss           0x2000205c        0x0 c:/program files (x86)/embitz/1.11/share/em_armgcc/bin/../lib/gcc/arm-none-eabi/5.4.1/../../../../arm-none-eabi/lib/armv7e-m/fpu\libnosys_s.a(sbrk.o)
 .bss.heap_end.4169
                0x2000205c        0x4 c:/program files (x86)/embitz/1.11/share/em_armgcc/bin/../lib/gcc/arm-none-eabi/5.4.1/../../../../arm-none-eabi/lib/armv7e-m/fpu\libnosys_s.a(sbrk.o)
 .bss           0x20002060        0x0 c:/program files (x86)/embitz/1.11/share/em_armgcc/bin/../lib/gcc/arm-none-eabi/5.4.1/../../../../arm-none-eabi/lib/armv7e-m/fpu\libnosys_s.a(_exit.o)
 .bss           0x20002060        0x0 c:/program files (x86)/embitz/1.11/share/em_armgcc/bin/../lib/gcc/arm-none-eabi/5.4.1/armv7e-m/fpu/crtend.o
 .bss           0x20002060        0x0 c:/program files (x86)/embitz/1.11/share/em_armgcc/bin/../lib/gcc/arm-none-eabi/5.4.1/armv7e-m/fpu/crtn.o
 *(COMMON)
 COMMON         0x20002060      0x910 obj\release\src\filter_audio_segnal.o
                0x20002060                pCoeffs
                0x200020e0                lmsStateF32
                0x20002560                Sl_LMS
                0x20002570                errOutput
 COMMON         0x20002970     0x2410 obj\release\src\filter_noise_reduction.o
                0x20002970                bufferPreOut
                0x20002d70                FFTBufferMag
                0x20003570                OutputBuffer
                0x20003970                maxValue
                0x20003974                FFTBufferTmp
                0x20004174                maxIndex
                0x20004178                maxIndex_OLD
                0x2000417c                ADC_ConvertedValue
                0x2000457c                FFTBufferOut
                0x20004d7c                maxValue_OLD
 COMMON         0x20004d80     0x1034 obj\release\src\main.o
                0x20004d80                S3
                0x20004d8c                S
                0x20004d98                FFTBufferMagPlot
                0x20005198                FFTBufferMagPlot_OLD
                0x20005598                S4
                0x200055a4                FLTBufferTmp
                0x20005da4                S2
                0x20005db0                ticks
 COMMON         0x20005db4       0x30 obj\release\src\morsedecode.o
                0x20005db4                morseBuffer
                0x20005ddc                bufferIn
                0x20005de0                peakLevel
 COMMON         0x20005de4        0xc obj\release\src\tm_spi\tm_stm32f4_ili9341.o
                0x20005de4                ILI9341_x
                0x20005de8                ILI9341_Opts
                0x20005dee                ILI9341_y
 COMMON         0x20005df0        0x4 c:/program files (x86)/embitz/1.11/share/em_armgcc/bin/../lib/gcc/arm-none-eabi/5.4.1/../../../../arm-none-eabi/lib/armv7e-m/fpu\libg_n.a(lib_a-reent.o)
                0x20005df0                errno
                0x20005df4                __bss_end__ = .

.heap           0x20005df8        0x0
                0x20005df8                __end__ = .
                0x20005df8                end = __end__
 *(.heap*)
 .heap          0x20005df8        0x0 obj\release\src\startup_stm32f4xx.o
                0x20005df8                __HeapLimit = .

.stack_dummy    0x20005df8      0x100
 *(.stack)
 .stack         0x20005df8      0x100 obj\release\src\startup_stm32f4xx.o
                0x20020000                __StackTop = (ORIGIN (RAM) + LENGTH (RAM))
                0x2001ff00                __StackLimit = (__StackTop - SIZEOF (.stack_dummy))
                0x20020000                PROVIDE (__stack, __StackTop)
                0x00000001                ASSERT ((__StackLimit >= __HeapLimit), region RAM overflowed with stack)
LOAD obj\release\spl\src\misc.o
LOAD obj\release\spl\src\stm32f4xx_adc.o
LOAD obj\release\spl\src\stm32f4xx_can.o
LOAD obj\release\spl\src\stm32f4xx_crc.o
LOAD obj\release\spl\src\stm32f4xx_cryp.o
LOAD obj\release\spl\src\stm32f4xx_cryp_aes.o
LOAD obj\release\spl\src\stm32f4xx_cryp_des.o
LOAD obj\release\spl\src\stm32f4xx_cryp_tdes.o
LOAD obj\release\spl\src\stm32f4xx_dac.o
LOAD obj\release\spl\src\stm32f4xx_dbgmcu.o
LOAD obj\release\spl\src\stm32f4xx_dcmi.o
LOAD obj\release\spl\src\stm32f4xx_dma.o
LOAD obj\release\spl\src\stm32f4xx_exti.o
LOAD obj\release\spl\src\stm32f4xx_flash.o
LOAD obj\release\spl\src\stm32f4xx_fsmc.o
LOAD obj\release\spl\src\stm32f4xx_gpio.o
LOAD obj\release\spl\src\stm32f4xx_hash.o
LOAD obj\release\spl\src\stm32f4xx_hash_md5.o
LOAD obj\release\spl\src\stm32f4xx_hash_sha1.o
LOAD obj\release\spl\src\stm32f4xx_i2c.o
LOAD obj\release\spl\src\stm32f4xx_iwdg.o
LOAD obj\release\spl\src\stm32f4xx_pwr.o
LOAD obj\release\spl\src\stm32f4xx_rcc.o
LOAD obj\release\spl\src\stm32f4xx_rng.o
LOAD obj\release\spl\src\stm32f4xx_rtc.o
LOAD obj\release\spl\src\stm32f4xx_sdio.o
LOAD obj\release\spl\src\stm32f4xx_spi.o
LOAD obj\release\spl\src\stm32f4xx_syscfg.o
LOAD obj\release\spl\src\stm32f4xx_tim.o
LOAD obj\release\spl\src\stm32f4xx_usart.o
LOAD obj\release\spl\src\stm32f4xx_wwdg.o
LOAD obj\release\src\filter_audio_segnal.o
LOAD obj\release\src\filter_noise_reduction.o
LOAD obj\release\src\io_audio.o
LOAD obj\release\src\io_display.o
LOAD obj\release\src\main.o
LOAD obj\release\src\morsedecode.o
LOAD obj\release\src\startup_stm32f4xx.o
LOAD obj\release\src\system_stm32f4xx.o
LOAD obj\release\src\tm_enc\tm_stm32f4_exti.o
LOAD obj\release\src\tm_enc\tm_stm32f4_rotary_encoder.o
LOAD obj\release\src\tm_spi\tm_stm32f4_disco.o
LOAD obj\release\src\tm_spi\tm_stm32f4_fonts.o
LOAD obj\release\src\tm_spi\tm_stm32f4_gpio.o
LOAD obj\release\src\tm_spi\tm_stm32f4_ili9341.o
LOAD obj\release\src\tm_spi\tm_stm32f4_spi.o
LOAD ..\CMSIS-4.5.0\CMSIS-4.5.0\CMSIS\Lib\GCC\libarm_cortexM4lf_math.a
LOAD c:/program files (x86)/embitz/1.11/share/em_armgcc/bin/../lib/gcc/arm-none-eabi/5.4.1/../../../../arm-none-eabi/lib/armv7e-m/fpu\libm.a
LOAD ..\CMSIS_5-5.4.0\CMSIS_5-5.4.0\CMSIS\Lib\GCC\libarm_cortexM4lf_math.a
START GROUP
LOAD c:/program files (x86)/embitz/1.11/share/em_armgcc/bin/../lib/gcc/arm-none-eabi/5.4.1/armv7e-m/fpu\libgcc.a
LOAD c:/program files (x86)/embitz/1.11/share/em_armgcc/bin/../lib/gcc/arm-none-eabi/5.4.1/../../../../arm-none-eabi/lib/armv7e-m/fpu\libg_n.a
LOAD c:/program files (x86)/embitz/1.11/share/em_armgcc/bin/../lib/gcc/arm-none-eabi/5.4.1/../../../../arm-none-eabi/lib/armv7e-m/fpu\libc_n.a
END GROUP
START GROUP
LOAD c:/program files (x86)/embitz/1.11/share/em_armgcc/bin/../lib/gcc/arm-none-eabi/5.4.1/armv7e-m/fpu\libgcc.a
LOAD c:/program files (x86)/embitz/1.11/share/em_armgcc/bin/../lib/gcc/arm-none-eabi/5.4.1/../../../../arm-none-eabi/lib/armv7e-m/fpu\libc_n.a
LOAD c:/program files (x86)/embitz/1.11/share/em_armgcc/bin/../lib/gcc/arm-none-eabi/5.4.1/../../../../arm-none-eabi/lib/armv7e-m/fpu\libnosys_s.a
END GROUP
LOAD c:/program files (x86)/embitz/1.11/share/em_armgcc/bin/../lib/gcc/arm-none-eabi/5.4.1/armv7e-m/fpu/crtend.o
LOAD c:/program files (x86)/embitz/1.11/share/em_armgcc/bin/../lib/gcc/arm-none-eabi/5.4.1/armv7e-m/fpu/crtn.o
OUTPUT(bin\Release\RadioDSP_CortexM4.elf elf32-littlearm)

.ARM.attributes
                0x00000000       0x30
 .ARM.attributes
                0x00000000       0x22 c:/program files (x86)/embitz/1.11/share/em_armgcc/bin/../lib/gcc/arm-none-eabi/5.4.1/armv7e-m/fpu/crti.o
 .ARM.attributes
                0x00000022       0x34 c:/program files (x86)/embitz/1.11/share/em_armgcc/bin/../lib/gcc/arm-none-eabi/5.4.1/armv7e-m/fpu/crtbegin.o
 .ARM.attributes
                0x00000056       0x20 c:/program files (x86)/embitz/1.11/share/em_armgcc/bin/../lib/gcc/arm-none-eabi/5.4.1/../../../../arm-none-eabi/lib/armv7e-m/fpu/crt0.o
 .ARM.attributes
                0x00000076       0x39 obj\release\spl\src\misc.o
 .ARM.attributes
                0x000000af       0x39 obj\release\spl\src\stm32f4xx_adc.o
 .ARM.attributes
                0x000000e8       0x39 obj\release\spl\src\stm32f4xx_can.o
 .ARM.attributes
                0x00000121       0x39 obj\release\spl\src\stm32f4xx_crc.o
 .ARM.attributes
                0x0000015a       0x39 obj\release\spl\src\stm32f4xx_cryp.o
 .ARM.attributes
                0x00000193       0x39 obj\release\spl\src\stm32f4xx_cryp_aes.o
 .ARM.attributes
                0x000001cc       0x39 obj\release\spl\src\stm32f4xx_cryp_des.o
 .ARM.attributes
                0x00000205       0x39 obj\release\spl\src\stm32f4xx_cryp_tdes.o
 .ARM.attributes
                0x0000023e       0x39 obj\release\spl\src\stm32f4xx_dac.o
 .ARM.attributes
                0x00000277       0x39 obj\release\spl\src\stm32f4xx_dbgmcu.o
 .ARM.attributes
                0x000002b0       0x39 obj\release\spl\src\stm32f4xx_dcmi.o
 .ARM.attributes
                0x000002e9       0x39 obj\release\spl\src\stm32f4xx_dma.o
 .ARM.attributes
                0x00000322       0x39 obj\release\spl\src\stm32f4xx_exti.o
 .ARM.attributes
                0x0000035b       0x39 obj\release\spl\src\stm32f4xx_flash.o
 .ARM.attributes
                0x00000394       0x39 obj\release\spl\src\stm32f4xx_fsmc.o
 .ARM.attributes
                0x000003cd       0x39 obj\release\spl\src\stm32f4xx_gpio.o
 .ARM.attributes
                0x00000406       0x39 obj\release\spl\src\stm32f4xx_hash.o
 .ARM.attributes
                0x0000043f       0x39 obj\release\spl\src\stm32f4xx_hash_md5.o
 .ARM.attributes
                0x00000478       0x39 obj\release\spl\src\stm32f4xx_hash_sha1.o
 .ARM.attributes
                0x000004b1       0x39 obj\release\spl\src\stm32f4xx_i2c.o
 .ARM.attributes
                0x000004ea       0x39 obj\release\spl\src\stm32f4xx_iwdg.o
 .ARM.attributes
                0x00000523       0x39 obj\release\spl\src\stm32f4xx_pwr.o
 .ARM.attributes
                0x0000055c       0x39 obj\release\spl\src\stm32f4xx_rcc.o
 .ARM.attributes
                0x00000595       0x39 obj\release\spl\src\stm32f4xx_rng.o
 .ARM.attributes
                0x000005ce       0x39 obj\release\spl\src\stm32f4xx_rtc.o
 .ARM.attributes
                0x00000607       0x39 obj\release\spl\src\stm32f4xx_sdio.o
 .ARM.attributes
                0x00000640       0x39 obj\release\spl\src\stm32f4xx_spi.o
 .ARM.attributes
                0x00000679       0x39 obj\release\spl\src\stm32f4xx_syscfg.o
 .ARM.attributes
                0x000006b2       0x39 obj\release\spl\src\stm32f4xx_tim.o
 .ARM.attributes
                0x000006eb       0x39 obj\release\spl\src\stm32f4xx_usart.o
 .ARM.attributes
                0x00000724       0x39 obj\release\spl\src\stm32f4xx_wwdg.o
 .ARM.attributes
                0x0000075d       0x39 obj\release\src\filter_audio_segnal.o
 .ARM.attributes
                0x00000796       0x39 obj\release\src\filter_noise_reduction.o
 .ARM.attributes
                0x000007cf       0x39 obj\release\src\io_audio.o
 .ARM.attributes
                0x00000808       0x39 obj\release\src\io_display.o
 .ARM.attributes
                0x00000841       0x39 obj\release\src\main.o
 .ARM.attributes
                0x0000087a       0x39 obj\release\src\morsedecode.o
 .ARM.attributes
                0x000008b3       0x1f obj\release\src\startup_stm32f4xx.o
 .ARM.attributes
                0x000008d2       0x39 obj\release\src\system_stm32f4xx.o
 .ARM.attributes
                0x0000090b       0x39 obj\release\src\tm_enc\tm_stm32f4_exti.o
 .ARM.attributes
                0x00000944       0x39 obj\release\src\tm_enc\tm_stm32f4_rotary_encoder.o
 .ARM.attributes
                0x0000097d       0x39 obj\release\src\tm_spi\tm_stm32f4_disco.o
 .ARM.attributes
                0x000009b6       0x39 obj\release\src\tm_spi\tm_stm32f4_fonts.o
 .ARM.attributes
                0x000009ef       0x39 obj\release\src\tm_spi\tm_stm32f4_gpio.o
 .ARM.attributes
                0x00000a28       0x39 obj\release\src\tm_spi\tm_stm32f4_ili9341.o
 .ARM.attributes
                0x00000a61       0x39 obj\release\src\tm_spi\tm_stm32f4_spi.o
 .ARM.attributes
                0x00000a9a       0x39 ..\CMSIS-4.5.0\CMSIS-4.5.0\CMSIS\Lib\GCC\libarm_cortexM4lf_math.a(arm_const_structs.o)
 .ARM.attributes
                0x00000ad3       0x39 ..\CMSIS-4.5.0\CMSIS-4.5.0\CMSIS\Lib\GCC\libarm_cortexM4lf_math.a(arm_common_tables.o)
 .ARM.attributes
                0x00000b0c       0x39 ..\CMSIS-4.5.0\CMSIS-4.5.0\CMSIS\Lib\GCC\libarm_cortexM4lf_math.a(arm_q15_to_float.o)
 .ARM.attributes
                0x00000b45       0x39 ..\CMSIS-4.5.0\CMSIS-4.5.0\CMSIS\Lib\GCC\libarm_cortexM4lf_math.a(arm_float_to_q15.o)
 .ARM.attributes
                0x00000b7e       0x39 ..\CMSIS-4.5.0\CMSIS-4.5.0\CMSIS\Lib\GCC\libarm_cortexM4lf_math.a(arm_max_f32.o)
 .ARM.attributes
                0x00000bb7       0x39 ..\CMSIS-4.5.0\CMSIS-4.5.0\CMSIS\Lib\GCC\libarm_cortexM4lf_math.a(arm_cfft_f32.o)
 .ARM.attributes
                0x00000bf0       0x39 ..\CMSIS-4.5.0\CMSIS-4.5.0\CMSIS\Lib\GCC\libarm_cortexM4lf_math.a(arm_lms_init_f32.o)
 .ARM.attributes
                0x00000c29       0x39 ..\CMSIS-4.5.0\CMSIS-4.5.0\CMSIS\Lib\GCC\libarm_cortexM4lf_math.a(arm_lms_f32.o)
 .ARM.attributes
                0x00000c62       0x39 ..\CMSIS-4.5.0\CMSIS-4.5.0\CMSIS\Lib\GCC\libarm_cortexM4lf_math.a(arm_fir_init_f32.o)
 .ARM.attributes
                0x00000c9b       0x39 ..\CMSIS-4.5.0\CMSIS-4.5.0\CMSIS\Lib\GCC\libarm_cortexM4lf_math.a(arm_fir_f32.o)
 .ARM.attributes
                0x00000cd4       0x39 ..\CMSIS-4.5.0\CMSIS-4.5.0\CMSIS\Lib\GCC\libarm_cortexM4lf_math.a(arm_cmplx_mag_f32.o)
 .ARM.attributes
                0x00000d0d       0x39 ..\CMSIS-4.5.0\CMSIS-4.5.0\CMSIS\Lib\GCC\libarm_cortexM4lf_math.a(arm_sin_f32.o)
 .ARM.attributes
                0x00000d46       0x39 ..\CMSIS-4.5.0\CMSIS-4.5.0\CMSIS\Lib\GCC\libarm_cortexM4lf_math.a(arm_cos_f32.o)
 .ARM.attributes
                0x00000d7f       0x25 ..\CMSIS-4.5.0\CMSIS-4.5.0\CMSIS\Lib\GCC\libarm_cortexM4lf_math.a(arm_bitreversal2.o)
 .ARM.attributes
                0x00000da4       0x39 ..\CMSIS-4.5.0\CMSIS-4.5.0\CMSIS\Lib\GCC\libarm_cortexM4lf_math.a(arm_cfft_radix8_f32.o)
 .ARM.attributes
                0x00000ddd       0x34 c:/program files (x86)/embitz/1.11/share/em_armgcc/bin/../lib/gcc/arm-none-eabi/5.4.1/../../../../arm-none-eabi/lib/armv7e-m/fpu\libm.a(lib_a-cargf.o)
 .ARM.attributes
                0x00000e11       0x34 c:/program files (x86)/embitz/1.11/share/em_armgcc/bin/../lib/gcc/arm-none-eabi/5.4.1/../../../../arm-none-eabi/lib/armv7e-m/fpu\libm.a(lib_a-cimagf.o)
 .ARM.attributes
                0x00000e45       0x34 c:/program files (x86)/embitz/1.11/share/em_armgcc/bin/../lib/gcc/arm-none-eabi/5.4.1/../../../../arm-none-eabi/lib/armv7e-m/fpu\libm.a(lib_a-crealf.o)
 .ARM.attributes
                0x00000e79       0x34 c:/program files (x86)/embitz/1.11/share/em_armgcc/bin/../lib/gcc/arm-none-eabi/5.4.1/../../../../arm-none-eabi/lib/armv7e-m/fpu\libm.a(lib_a-wf_atan2.o)
 .ARM.attributes
                0x00000ead       0x34 c:/program files (x86)/embitz/1.11/share/em_armgcc/bin/../lib/gcc/arm-none-eabi/5.4.1/../../../../arm-none-eabi/lib/armv7e-m/fpu\libm.a(lib_a-wf_sqrt.o)
 .ARM.attributes
                0x00000ee1       0x34 c:/program files (x86)/embitz/1.11/share/em_armgcc/bin/../lib/gcc/arm-none-eabi/5.4.1/../../../../arm-none-eabi/lib/armv7e-m/fpu\libm.a(lib_a-ef_atan2.o)
 .ARM.attributes
                0x00000f15       0x34 c:/program files (x86)/embitz/1.11/share/em_armgcc/bin/../lib/gcc/arm-none-eabi/5.4.1/../../../../arm-none-eabi/lib/armv7e-m/fpu\libm.a(lib_a-ef_sqrt.o)
 .ARM.attributes
                0x00000f49       0x34 c:/program files (x86)/embitz/1.11/share/em_armgcc/bin/../lib/gcc/arm-none-eabi/5.4.1/../../../../arm-none-eabi/lib/armv7e-m/fpu\libm.a(lib_a-s_lib_ver.o)
 .ARM.attributes
                0x00000f7d       0x34 c:/program files (x86)/embitz/1.11/share/em_armgcc/bin/../lib/gcc/arm-none-eabi/5.4.1/../../../../arm-none-eabi/lib/armv7e-m/fpu\libm.a(lib_a-s_matherr.o)
 .ARM.attributes
                0x00000fb1       0x34 c:/program files (x86)/embitz/1.11/share/em_armgcc/bin/../lib/gcc/arm-none-eabi/5.4.1/../../../../arm-none-eabi/lib/armv7e-m/fpu\libm.a(lib_a-sf_atan.o)
 .ARM.attributes
                0x00000fe5       0x34 c:/program files (x86)/embitz/1.11/share/em_armgcc/bin/../lib/gcc/arm-none-eabi/5.4.1/../../../../arm-none-eabi/lib/armv7e-m/fpu\libm.a(lib_a-sf_fabs.o)
 .ARM.attributes
                0x00001019       0x22 c:/program files (x86)/embitz/1.11/share/em_armgcc/bin/../lib/gcc/arm-none-eabi/5.4.1/armv7e-m/fpu\libgcc.a(_arm_addsubdf3.o)
 .ARM.attributes
                0x0000103b       0x22 c:/program files (x86)/embitz/1.11/share/em_armgcc/bin/../lib/gcc/arm-none-eabi/5.4.1/armv7e-m/fpu\libgcc.a(_arm_muldivdf3.o)
 .ARM.attributes
                0x0000105d       0x22 c:/program files (x86)/embitz/1.11/share/em_armgcc/bin/../lib/gcc/arm-none-eabi/5.4.1/armv7e-m/fpu\libgcc.a(_arm_truncdfsf2.o)
 .ARM.attributes
                0x0000107f       0x34 c:/program files (x86)/embitz/1.11/share/em_armgcc/bin/../lib/gcc/arm-none-eabi/5.4.1/../../../../arm-none-eabi/lib/armv7e-m/fpu\libg_n.a(lib_a-errno.o)
 .ARM.attributes
                0x000010b3       0x34 c:/program files (x86)/embitz/1.11/share/em_armgcc/bin/../lib/gcc/arm-none-eabi/5.4.1/../../../../arm-none-eabi/lib/armv7e-m/fpu\libg_n.a(lib_a-exit.o)
 .ARM.attributes
                0x000010e7       0x34 c:/program files (x86)/embitz/1.11/share/em_armgcc/bin/../lib/gcc/arm-none-eabi/5.4.1/../../../../arm-none-eabi/lib/armv7e-m/fpu\libg_n.a(lib_a-impure.o)
 .ARM.attributes
                0x0000111b       0x34 c:/program files (x86)/embitz/1.11/share/em_armgcc/bin/../lib/gcc/arm-none-eabi/5.4.1/../../../../arm-none-eabi/lib/armv7e-m/fpu\libg_n.a(lib_a-init.o)
 .ARM.attributes
                0x0000114f       0x34 c:/program files (x86)/embitz/1.11/share/em_armgcc/bin/../lib/gcc/arm-none-eabi/5.4.1/../../../../arm-none-eabi/lib/armv7e-m/fpu\libg_n.a(lib_a-memset.o)
 .ARM.attributes
                0x00001183       0x34 c:/program files (x86)/embitz/1.11/share/em_armgcc/bin/../lib/gcc/arm-none-eabi/5.4.1/../../../../arm-none-eabi/lib/armv7e-m/fpu\libg_n.a(lib_a-sprintf.o)
 .ARM.attributes
                0x000011b7       0x34 c:/program files (x86)/embitz/1.11/share/em_armgcc/bin/../lib/gcc/arm-none-eabi/5.4.1/../../../../arm-none-eabi/lib/armv7e-m/fpu\libg_n.a(lib_a-nano-svfprintf.o)
 .ARM.attributes
                0x000011eb       0x34 c:/program files (x86)/embitz/1.11/share/em_armgcc/bin/../lib/gcc/arm-none-eabi/5.4.1/../../../../arm-none-eabi/lib/armv7e-m/fpu\libg_n.a(lib_a-nano-vfprintf_i.o)
 .ARM.attributes
                0x0000121f       0x20 c:/program files (x86)/embitz/1.11/share/em_armgcc/bin/../lib/gcc/arm-none-eabi/5.4.1/../../../../arm-none-eabi/lib/armv7e-m/fpu\libg_n.a(lib_a-memchr.o)
 .ARM.attributes
                0x0000123f       0x34 c:/program files (x86)/embitz/1.11/share/em_armgcc/bin/../lib/gcc/arm-none-eabi/5.4.1/../../../../arm-none-eabi/lib/armv7e-m/fpu\libg_n.a(lib_a-memcpy-stub.o)
 .ARM.attributes
                0x00001273       0x34 c:/program files (x86)/embitz/1.11/share/em_armgcc/bin/../lib/gcc/arm-none-eabi/5.4.1/../../../../arm-none-eabi/lib/armv7e-m/fpu\libg_n.a(lib_a-memmove.o)
 .ARM.attributes
                0x000012a7       0x34 c:/program files (x86)/embitz/1.11/share/em_armgcc/bin/../lib/gcc/arm-none-eabi/5.4.1/../../../../arm-none-eabi/lib/armv7e-m/fpu\libg_n.a(lib_a-nano-freer.o)
 .ARM.attributes
                0x000012db       0x34 c:/program files (x86)/embitz/1.11/share/em_armgcc/bin/../lib/gcc/arm-none-eabi/5.4.1/../../../../arm-none-eabi/lib/armv7e-m/fpu\libg_n.a(lib_a-nano-mallocr.o)
 .ARM.attributes
                0x0000130f       0x34 c:/program files (x86)/embitz/1.11/share/em_armgcc/bin/../lib/gcc/arm-none-eabi/5.4.1/../../../../arm-none-eabi/lib/armv7e-m/fpu\libg_n.a(lib_a-nano-reallocr.o)
 .ARM.attributes
                0x00001343       0x34 c:/program files (x86)/embitz/1.11/share/em_armgcc/bin/../lib/gcc/arm-none-eabi/5.4.1/../../../../arm-none-eabi/lib/armv7e-m/fpu\libg_n.a(lib_a-sbrkr.o)
 .ARM.attributes
                0x00001377       0x34 c:/program files (x86)/embitz/1.11/share/em_armgcc/bin/../lib/gcc/arm-none-eabi/5.4.1/../../../../arm-none-eabi/lib/armv7e-m/fpu\libg_n.a(lib_a-mlock.o)
 .ARM.attributes
                0x000013ab       0x34 c:/program files (x86)/embitz/1.11/share/em_armgcc/bin/../lib/gcc/arm-none-eabi/5.4.1/../../../../arm-none-eabi/lib/armv7e-m/fpu\libg_n.a(lib_a-nano-msizer.o)
 .ARM.attributes
                0x000013df       0x34 c:/program files (x86)/embitz/1.11/share/em_armgcc/bin/../lib/gcc/arm-none-eabi/5.4.1/../../../../arm-none-eabi/lib/armv7e-m/fpu\libg_n.a(lib_a-reent.o)
 .ARM.attributes
                0x00001413       0x34 c:/program files (x86)/embitz/1.11/share/em_armgcc/bin/../lib/gcc/arm-none-eabi/5.4.1/../../../../arm-none-eabi/lib/armv7e-m/fpu\libnosys_s.a(sbrk.o)
 .ARM.attributes
                0x00001447       0x34 c:/program files (x86)/embitz/1.11/share/em_armgcc/bin/../lib/gcc/arm-none-eabi/5.4.1/../../../../arm-none-eabi/lib/armv7e-m/fpu\libnosys_s.a(_exit.o)
 .ARM.attributes
                0x0000147b       0x34 c:/program files (x86)/embitz/1.11/share/em_armgcc/bin/../lib/gcc/arm-none-eabi/5.4.1/armv7e-m/fpu/crtend.o
 .ARM.attributes
                0x000014af       0x22 c:/program files (x86)/embitz/1.11/share/em_armgcc/bin/../lib/gcc/arm-none-eabi/5.4.1/armv7e-m/fpu/crtn.o

.comment        0x00000000       0xde
 .comment       0x00000000       0x6e obj\release\spl\src\misc.o
                                 0x6f (size before relaxing)
 .comment       0x0000006e       0x6f obj\release\spl\src\stm32f4xx_adc.o
 .comment       0x0000006e       0x6f obj\release\spl\src\stm32f4xx_can.o
 .comment       0x0000006e       0x6f obj\release\spl\src\stm32f4xx_crc.o
 .comment       0x0000006e       0x6f obj\release\spl\src\stm32f4xx_cryp.o
 .comment       0x0000006e       0x6f obj\release\spl\src\stm32f4xx_cryp_aes.o
 .comment       0x0000006e       0x6f obj\release\spl\src\stm32f4xx_cryp_des.o
 .comment       0x0000006e       0x6f obj\release\spl\src\stm32f4xx_cryp_tdes.o
 .comment       0x0000006e       0x6f obj\release\spl\src\stm32f4xx_dac.o
 .comment       0x0000006e       0x6f obj\release\spl\src\stm32f4xx_dbgmcu.o
 .comment       0x0000006e       0x6f obj\release\spl\src\stm32f4xx_dcmi.o
 .comment       0x0000006e       0x6f obj\release\spl\src\stm32f4xx_dma.o
 .comment       0x0000006e       0x6f obj\release\spl\src\stm32f4xx_exti.o
 .comment       0x0000006e       0x6f obj\release\spl\src\stm32f4xx_flash.o
 .comment       0x0000006e       0x6f obj\release\spl\src\stm32f4xx_fsmc.o
 .comment       0x0000006e       0x6f obj\release\spl\src\stm32f4xx_gpio.o
 .comment       0x0000006e       0x6f obj\release\spl\src\stm32f4xx_hash.o
 .comment       0x0000006e       0x6f obj\release\spl\src\stm32f4xx_hash_md5.o
 .comment       0x0000006e       0x6f obj\release\spl\src\stm32f4xx_hash_sha1.o
 .comment       0x0000006e       0x6f obj\release\spl\src\stm32f4xx_i2c.o
 .comment       0x0000006e       0x6f obj\release\spl\src\stm32f4xx_iwdg.o
 .comment       0x0000006e       0x6f obj\release\spl\src\stm32f4xx_pwr.o
 .comment       0x0000006e       0x6f obj\release\spl\src\stm32f4xx_rcc.o
 .comment       0x0000006e       0x6f obj\release\spl\src\stm32f4xx_rng.o
 .comment       0x0000006e       0x6f obj\release\spl\src\stm32f4xx_rtc.o
 .comment       0x0000006e       0x6f obj\release\spl\src\stm32f4xx_sdio.o
 .comment       0x0000006e       0x6f obj\release\spl\src\stm32f4xx_spi.o
 .comment       0x0000006e       0x6f obj\release\spl\src\stm32f4xx_syscfg.o
 .comment       0x0000006e       0x6f obj\release\spl\src\stm32f4xx_tim.o
 .comment       0x0000006e       0x6f obj\release\spl\src\stm32f4xx_usart.o
 .comment       0x0000006e       0x6f obj\release\spl\src\stm32f4xx_wwdg.o
 .comment       0x0000006e       0x6f obj\release\src\filter_audio_segnal.o
 .comment       0x0000006e       0x6f obj\release\src\filter_noise_reduction.o
 .comment       0x0000006e       0x6f obj\release\src\io_audio.o
 .comment       0x0000006e       0x6f obj\release\src\io_display.o
 .comment       0x0000006e       0x6f obj\release\src\main.o
 .comment       0x0000006e       0x6f obj\release\src\morsedecode.o
 .comment       0x0000006e       0x6f obj\release\src\system_stm32f4xx.o
 .comment       0x0000006e       0x6f obj\release\src\tm_enc\tm_stm32f4_exti.o
 .comment       0x0000006e       0x6f obj\release\src\tm_enc\tm_stm32f4_rotary_encoder.o
 .comment       0x0000006e       0x6f obj\release\src\tm_spi\tm_stm32f4_disco.o
 .comment       0x0000006e       0x6f obj\release\src\tm_spi\tm_stm32f4_fonts.o
 .comment       0x0000006e       0x6f obj\release\src\tm_spi\tm_stm32f4_gpio.o
 .comment       0x0000006e       0x6f obj\release\src\tm_spi\tm_stm32f4_ili9341.o
 .comment       0x0000006e       0x6f obj\release\src\tm_spi\tm_stm32f4_spi.o
 .comment       0x0000006e       0x70 ..\CMSIS-4.5.0\CMSIS-4.5.0\CMSIS\Lib\GCC\libarm_cortexM4lf_math.a(arm_const_structs.o)
                                 0x71 (size before relaxing)
 .comment       0x000000de       0x71 ..\CMSIS-4.5.0\CMSIS-4.5.0\CMSIS\Lib\GCC\libarm_cortexM4lf_math.a(arm_common_tables.o)
 .comment       0x000000de       0x71 ..\CMSIS-4.5.0\CMSIS-4.5.0\CMSIS\Lib\GCC\libarm_cortexM4lf_math.a(arm_q15_to_float.o)
 .comment       0x000000de       0x71 ..\CMSIS-4.5.0\CMSIS-4.5.0\CMSIS\Lib\GCC\libarm_cortexM4lf_math.a(arm_float_to_q15.o)
 .comment       0x000000de       0x71 ..\CMSIS-4.5.0\CMSIS-4.5.0\CMSIS\Lib\GCC\libarm_cortexM4lf_math.a(arm_max_f32.o)
 .comment       0x000000de       0x71 ..\CMSIS-4.5.0\CMSIS-4.5.0\CMSIS\Lib\GCC\libarm_cortexM4lf_math.a(arm_cfft_f32.o)
 .comment       0x000000de       0x71 ..\CMSIS-4.5.0\CMSIS-4.5.0\CMSIS\Lib\GCC\libarm_cortexM4lf_math.a(arm_lms_init_f32.o)
 .comment       0x000000de       0x71 ..\CMSIS-4.5.0\CMSIS-4.5.0\CMSIS\Lib\GCC\libarm_cortexM4lf_math.a(arm_lms_f32.o)
 .comment       0x000000de       0x71 ..\CMSIS-4.5.0\CMSIS-4.5.0\CMSIS\Lib\GCC\libarm_cortexM4lf_math.a(arm_fir_init_f32.o)
 .comment       0x000000de       0x71 ..\CMSIS-4.5.0\CMSIS-4.5.0\CMSIS\Lib\GCC\libarm_cortexM4lf_math.a(arm_fir_f32.o)
 .comment       0x000000de       0x71 ..\CMSIS-4.5.0\CMSIS-4.5.0\CMSIS\Lib\GCC\libarm_cortexM4lf_math.a(arm_cmplx_mag_f32.o)
 .comment       0x000000de       0x71 ..\CMSIS-4.5.0\CMSIS-4.5.0\CMSIS\Lib\GCC\libarm_cortexM4lf_math.a(arm_sin_f32.o)
 .comment       0x000000de       0x71 ..\CMSIS-4.5.0\CMSIS-4.5.0\CMSIS\Lib\GCC\libarm_cortexM4lf_math.a(arm_cos_f32.o)
 .comment       0x000000de       0x71 ..\CMSIS-4.5.0\CMSIS-4.5.0\CMSIS\Lib\GCC\libarm_cortexM4lf_math.a(arm_cfft_radix8_f32.o)

.debug_info     0x00000000    0x29095
 .debug_info    0x00000000      0x560 obj\release\spl\src\misc.o
 .debug_info    0x00000560      0xc63 obj\release\spl\src\stm32f4xx_adc.o
 .debug_info    0x000011c3      0xc79 obj\release\spl\src\stm32f4xx_can.o
 .debug_info    0x00001e3c      0x20f obj\release\spl\src\stm32f4xx_crc.o
 .debug_info    0x0000204b      0x763 obj\release\spl\src\stm32f4xx_cryp.o
 .debug_info    0x000027ae     0x1012 obj\release\spl\src\stm32f4xx_cryp_aes.o
 .debug_info    0x000037c0      0x6bd obj\release\spl\src\stm32f4xx_cryp_des.o
 .debug_info    0x00003e7d      0x785 obj\release\spl\src\stm32f4xx_cryp_tdes.o
 .debug_info    0x00004602      0x64f obj\release\spl\src\stm32f4xx_dac.o
 .debug_info    0x00004c51      0x1e4 obj\release\spl\src\stm32f4xx_dbgmcu.o
 .debug_info    0x00004e35      0x541 obj\release\spl\src\stm32f4xx_dcmi.o
 .debug_info    0x00005376      0x71a obj\release\spl\src\stm32f4xx_dma.o
 .debug_info    0x00005a90      0x34b obj\release\spl\src\stm32f4xx_exti.o
 .debug_info    0x00005ddb     0x1000 obj\release\spl\src\stm32f4xx_flash.o
 .debug_info    0x00006ddb      0x90e obj\release\spl\src\stm32f4xx_fsmc.o
 .debug_info    0x000076e9      0x7df obj\release\spl\src\stm32f4xx_gpio.o
 .debug_info    0x00007ec8      0x5b1 obj\release\spl\src\stm32f4xx_hash.o
 .debug_info    0x00008479      0x5dc obj\release\spl\src\stm32f4xx_hash_md5.o
 .debug_info    0x00008a55      0x60f obj\release\spl\src\stm32f4xx_hash_sha1.o
 .debug_info    0x00009064      0xb71 obj\release\spl\src\stm32f4xx_i2c.o
 .debug_info    0x00009bd5      0x211 obj\release\spl\src\stm32f4xx_iwdg.o
 .debug_info    0x00009de6      0x517 obj\release\spl\src\stm32f4xx_pwr.o
 .debug_info    0x0000a2fd      0xd11 obj\release\spl\src\stm32f4xx_rcc.o
 .debug_info    0x0000b00e      0x29c obj\release\spl\src\stm32f4xx_rng.o
 .debug_info    0x0000b2aa     0x1679 obj\release\spl\src\stm32f4xx_rtc.o
 .debug_info    0x0000c923      0x7f7 obj\release\spl\src\stm32f4xx_sdio.o
 .debug_info    0x0000d11a      0xbc4 obj\release\spl\src\stm32f4xx_spi.o
 .debug_info    0x0000dcde      0x2ba obj\release\spl\src\stm32f4xx_syscfg.o
 .debug_info    0x0000df98     0x2492 obj\release\spl\src\stm32f4xx_tim.o
 .debug_info    0x0001042a      0xb31 obj\release\spl\src\stm32f4xx_usart.o
 .debug_info    0x00010f5b      0x297 obj\release\spl\src\stm32f4xx_wwdg.o
 .debug_info    0x000111f2      0x2a1 obj\release\src\filter_audio_segnal.o
 .debug_info    0x00011493      0x802 obj\release\src\filter_noise_reduction.o
 .debug_info    0x00011c95     0x1108 obj\release\src\io_audio.o
 .debug_info    0x00012d9d     0x23d9 obj\release\src\io_display.o
 .debug_info    0x00015176     0x10bd obj\release\src\main.o
 .debug_info    0x00016233      0x3fb obj\release\src\morsedecode.o
 .debug_info    0x0001662e       0x5a obj\release\src\startup_stm32f4xx.o
 .debug_info    0x00016688      0x5ea obj\release\src\system_stm32f4xx.o
 .debug_info    0x00016c72      0xcc4 obj\release\src\tm_enc\tm_stm32f4_exti.o
 .debug_info    0x00017936      0x468 obj\release\src\tm_enc\tm_stm32f4_rotary_encoder.o
 .debug_info    0x00017d9e      0x2ea obj\release\src\tm_spi\tm_stm32f4_disco.o
 .debug_info    0x00018088      0x1ac obj\release\src\tm_spi\tm_stm32f4_fonts.o
 .debug_info    0x00018234      0x80b obj\release\src\tm_spi\tm_stm32f4_gpio.o
 .debug_info    0x00018a3f     0xbb14 obj\release\src\tm_spi\tm_stm32f4_ili9341.o
 .debug_info    0x00024553     0x1869 obj\release\src\tm_spi\tm_stm32f4_spi.o
 .debug_info    0x00025dbc      0x9f5 ..\CMSIS-4.5.0\CMSIS-4.5.0\CMSIS\Lib\GCC\libarm_cortexM4lf_math.a(arm_const_structs.o)
 .debug_info    0x000267b1      0x99d ..\CMSIS-4.5.0\CMSIS-4.5.0\CMSIS\Lib\GCC\libarm_cortexM4lf_math.a(arm_common_tables.o)
 .debug_info    0x0002714e      0x145 ..\CMSIS-4.5.0\CMSIS-4.5.0\CMSIS\Lib\GCC\libarm_cortexM4lf_math.a(arm_q15_to_float.o)
 .debug_info    0x00027293      0x24d ..\CMSIS-4.5.0\CMSIS-4.5.0\CMSIS\Lib\GCC\libarm_cortexM4lf_math.a(arm_float_to_q15.o)
 .debug_info    0x000274e0      0x164 ..\CMSIS-4.5.0\CMSIS-4.5.0\CMSIS\Lib\GCC\libarm_cortexM4lf_math.a(arm_max_f32.o)
 .debug_info    0x00027644      0x6b9 ..\CMSIS-4.5.0\CMSIS-4.5.0\CMSIS\Lib\GCC\libarm_cortexM4lf_math.a(arm_cfft_f32.o)
 .debug_info    0x00027cfd      0x1d5 ..\CMSIS-4.5.0\CMSIS-4.5.0\CMSIS\Lib\GCC\libarm_cortexM4lf_math.a(arm_lms_init_f32.o)
 .debug_info    0x00027ed2      0x257 ..\CMSIS-4.5.0\CMSIS-4.5.0\CMSIS\Lib\GCC\libarm_cortexM4lf_math.a(arm_lms_f32.o)
 .debug_info    0x00028129      0x1b9 ..\CMSIS-4.5.0\CMSIS-4.5.0\CMSIS\Lib\GCC\libarm_cortexM4lf_math.a(arm_fir_init_f32.o)
 .debug_info    0x000282e2      0x382 ..\CMSIS-4.5.0\CMSIS-4.5.0\CMSIS\Lib\GCC\libarm_cortexM4lf_math.a(arm_fir_f32.o)
 .debug_info    0x00028664      0x299 ..\CMSIS-4.5.0\CMSIS-4.5.0\CMSIS\Lib\GCC\libarm_cortexM4lf_math.a(arm_cmplx_mag_f32.o)
 .debug_info    0x000288fd      0x17e ..\CMSIS-4.5.0\CMSIS-4.5.0\CMSIS\Lib\GCC\libarm_cortexM4lf_math.a(arm_sin_f32.o)
 .debug_info    0x00028a7b      0x17c ..\CMSIS-4.5.0\CMSIS-4.5.0\CMSIS\Lib\GCC\libarm_cortexM4lf_math.a(arm_cos_f32.o)
 .debug_info    0x00028bf7       0x85 ..\CMSIS-4.5.0\CMSIS-4.5.0\CMSIS\Lib\GCC\libarm_cortexM4lf_math.a(arm_bitreversal2.o)
 .debug_info    0x00028c7c      0x419 ..\CMSIS-4.5.0\CMSIS-4.5.0\CMSIS\Lib\GCC\libarm_cortexM4lf_math.a(arm_cfft_radix8_f32.o)

.debug_abbrev   0x00000000     0x5f5f
 .debug_abbrev  0x00000000      0x158 obj\release\spl\src\misc.o
 .debug_abbrev  0x00000158      0x21c obj\release\spl\src\stm32f4xx_adc.o
 .debug_abbrev  0x00000374      0x287 obj\release\spl\src\stm32f4xx_can.o
 .debug_abbrev  0x000005fb      0x125 obj\release\spl\src\stm32f4xx_crc.o
 .debug_abbrev  0x00000720      0x1d2 obj\release\spl\src\stm32f4xx_cryp.o
 .debug_abbrev  0x000008f2      0x228 obj\release\spl\src\stm32f4xx_cryp_aes.o
 .debug_abbrev  0x00000b1a      0x19f obj\release\spl\src\stm32f4xx_cryp_des.o
 .debug_abbrev  0x00000cb9      0x19f obj\release\spl\src\stm32f4xx_cryp_tdes.o
 .debug_abbrev  0x00000e58      0x211 obj\release\spl\src\stm32f4xx_dac.o
 .debug_abbrev  0x00001069       0xf1 obj\release\spl\src\stm32f4xx_dbgmcu.o
 .debug_abbrev  0x0000115a      0x1d5 obj\release\spl\src\stm32f4xx_dcmi.o
 .debug_abbrev  0x0000132f      0x1b9 obj\release\spl\src\stm32f4xx_dma.o
 .debug_abbrev  0x000014e8      0x1db obj\release\spl\src\stm32f4xx_exti.o
 .debug_abbrev  0x000016c3      0x219 obj\release\spl\src\stm32f4xx_flash.o
 .debug_abbrev  0x000018dc      0x192 obj\release\spl\src\stm32f4xx_fsmc.o
 .debug_abbrev  0x00001a6e      0x1f5 obj\release\spl\src\stm32f4xx_gpio.o
 .debug_abbrev  0x00001c63      0x1fc obj\release\spl\src\stm32f4xx_hash.o
 .debug_abbrev  0x00001e5f      0x1cf obj\release\spl\src\stm32f4xx_hash_md5.o
 .debug_abbrev  0x0000202e      0x1cf obj\release\spl\src\stm32f4xx_hash_sha1.o
 .debug_abbrev  0x000021fd      0x242 obj\release\spl\src\stm32f4xx_i2c.o
 .debug_abbrev  0x0000243f      0x114 obj\release\spl\src\stm32f4xx_iwdg.o
 .debug_abbrev  0x00002553      0x1bb obj\release\spl\src\stm32f4xx_pwr.o
 .debug_abbrev  0x0000270e      0x299 obj\release\spl\src\stm32f4xx_rcc.o
 .debug_abbrev  0x000029a7      0x19f obj\release\spl\src\stm32f4xx_rng.o
 .debug_abbrev  0x00002b46      0x26b obj\release\spl\src\stm32f4xx_rtc.o
 .debug_abbrev  0x00002db1      0x219 obj\release\spl\src\stm32f4xx_sdio.o
 .debug_abbrev  0x00002fca      0x1c2 obj\release\spl\src\stm32f4xx_spi.o
 .debug_abbrev  0x0000318c      0x164 obj\release\spl\src\stm32f4xx_syscfg.o
 .debug_abbrev  0x000032f0      0x297 obj\release\spl\src\stm32f4xx_tim.o
 .debug_abbrev  0x00003587      0x1d9 obj\release\spl\src\stm32f4xx_usart.o
 .debug_abbrev  0x00003760      0x173 obj\release\spl\src\stm32f4xx_wwdg.o
 .debug_abbrev  0x000038d3       0xcc obj\release\src\filter_audio_segnal.o
 .debug_abbrev  0x0000399f      0x212 obj\release\src\filter_noise_reduction.o
 .debug_abbrev  0x00003bb1      0x1ae obj\release\src\io_audio.o
 .debug_abbrev  0x00003d5f      0x3b5 obj\release\src\io_display.o
 .debug_abbrev  0x00004114      0x2d3 obj\release\src\main.o
 .debug_abbrev  0x000043e7      0x155 obj\release\src\morsedecode.o
 .debug_abbrev  0x0000453c       0x14 obj\release\src\startup_stm32f4xx.o
 .debug_abbrev  0x00004550      0x161 obj\release\src\system_stm32f4xx.o
 .debug_abbrev  0x000046b1      0x1f2 obj\release\src\tm_enc\tm_stm32f4_exti.o
 .debug_abbrev  0x000048a3      0x16e obj\release\src\tm_enc\tm_stm32f4_rotary_encoder.o
 .debug_abbrev  0x00004a11      0x11e obj\release\src\tm_spi\tm_stm32f4_disco.o
 .debug_abbrev  0x00004b2f       0xab obj\release\src\tm_spi\tm_stm32f4_fonts.o
 .debug_abbrev  0x00004bda      0x1f0 obj\release\src\tm_spi\tm_stm32f4_gpio.o
 .debug_abbrev  0x00004dca      0x33e obj\release\src\tm_spi\tm_stm32f4_ili9341.o
 .debug_abbrev  0x00005108      0x27a obj\release\src\tm_spi\tm_stm32f4_spi.o
 .debug_abbrev  0x00005382       0xa9 ..\CMSIS-4.5.0\CMSIS-4.5.0\CMSIS\Lib\GCC\libarm_cortexM4lf_math.a(arm_const_structs.o)
 .debug_abbrev  0x0000542b       0x84 ..\CMSIS-4.5.0\CMSIS-4.5.0\CMSIS\Lib\GCC\libarm_cortexM4lf_math.a(arm_common_tables.o)
 .debug_abbrev  0x000054af       0x94 ..\CMSIS-4.5.0\CMSIS-4.5.0\CMSIS\Lib\GCC\libarm_cortexM4lf_math.a(arm_q15_to_float.o)
 .debug_abbrev  0x00005543       0xa8 ..\CMSIS-4.5.0\CMSIS-4.5.0\CMSIS\Lib\GCC\libarm_cortexM4lf_math.a(arm_float_to_q15.o)
 .debug_abbrev  0x000055eb       0xb2 ..\CMSIS-4.5.0\CMSIS-4.5.0\CMSIS\Lib\GCC\libarm_cortexM4lf_math.a(arm_max_f32.o)
 .debug_abbrev  0x0000569d      0x18b ..\CMSIS-4.5.0\CMSIS-4.5.0\CMSIS\Lib\GCC\libarm_cortexM4lf_math.a(arm_cfft_f32.o)
 .debug_abbrev  0x00005828       0xf7 ..\CMSIS-4.5.0\CMSIS-4.5.0\CMSIS\Lib\GCC\libarm_cortexM4lf_math.a(arm_lms_init_f32.o)
 .debug_abbrev  0x0000591f       0xf5 ..\CMSIS-4.5.0\CMSIS-4.5.0\CMSIS\Lib\GCC\libarm_cortexM4lf_math.a(arm_lms_f32.o)
 .debug_abbrev  0x00005a14       0xe8 ..\CMSIS-4.5.0\CMSIS-4.5.0\CMSIS\Lib\GCC\libarm_cortexM4lf_math.a(arm_fir_init_f32.o)
 .debug_abbrev  0x00005afc       0xd7 ..\CMSIS-4.5.0\CMSIS-4.5.0\CMSIS\Lib\GCC\libarm_cortexM4lf_math.a(arm_fir_f32.o)
 .debug_abbrev  0x00005bd3      0x11b ..\CMSIS-4.5.0\CMSIS-4.5.0\CMSIS\Lib\GCC\libarm_cortexM4lf_math.a(arm_cmplx_mag_f32.o)
 .debug_abbrev  0x00005cee       0xd3 ..\CMSIS-4.5.0\CMSIS-4.5.0\CMSIS\Lib\GCC\libarm_cortexM4lf_math.a(arm_sin_f32.o)
 .debug_abbrev  0x00005dc1       0xe2 ..\CMSIS-4.5.0\CMSIS-4.5.0\CMSIS\Lib\GCC\libarm_cortexM4lf_math.a(arm_cos_f32.o)
 .debug_abbrev  0x00005ea3       0x14 ..\CMSIS-4.5.0\CMSIS-4.5.0\CMSIS\Lib\GCC\libarm_cortexM4lf_math.a(arm_bitreversal2.o)
 .debug_abbrev  0x00005eb7       0xa8 ..\CMSIS-4.5.0\CMSIS-4.5.0\CMSIS\Lib\GCC\libarm_cortexM4lf_math.a(arm_cfft_radix8_f32.o)

.debug_loc      0x00000000    0x172fc
 .debug_loc     0x00000000      0x186 obj\release\spl\src\misc.o
 .debug_loc     0x00000186      0x97c obj\release\spl\src\stm32f4xx_adc.o
 .debug_loc     0x00000b02      0x8ba obj\release\spl\src\stm32f4xx_can.o
 .debug_loc     0x000013bc       0x75 obj\release\spl\src\stm32f4xx_crc.o
 .debug_loc     0x00001431      0x20c obj\release\spl\src\stm32f4xx_cryp.o
 .debug_loc     0x0000163d      0x842 obj\release\spl\src\stm32f4xx_cryp_aes.o
 .debug_loc     0x00001e7f      0x482 obj\release\spl\src\stm32f4xx_cryp_des.o
 .debug_loc     0x00002301      0x4dc obj\release\spl\src\stm32f4xx_cryp_tdes.o
 .debug_loc     0x000027dd      0x46f obj\release\spl\src\stm32f4xx_dac.o
 .debug_loc     0x00002c4c       0xae obj\release\spl\src\stm32f4xx_dbgmcu.o
 .debug_loc     0x00002cfa      0x202 obj\release\spl\src\stm32f4xx_dcmi.o
 .debug_loc     0x00002efc      0x41a obj\release\spl\src\stm32f4xx_dma.o
 .debug_loc     0x00003316      0x1d6 obj\release\spl\src\stm32f4xx_exti.o
 .debug_loc     0x000034ec      0xcf2 obj\release\spl\src\stm32f4xx_flash.o
 .debug_loc     0x000041de      0x48a obj\release\spl\src\stm32f4xx_fsmc.o
 .debug_loc     0x00004668      0x369 obj\release\spl\src\stm32f4xx_gpio.o
 .debug_loc     0x000049d1      0x224 obj\release\spl\src\stm32f4xx_hash.o
 .debug_loc     0x00004bf5      0x4cb obj\release\spl\src\stm32f4xx_hash_md5.o
 .debug_loc     0x000050c0      0x4eb obj\release\spl\src\stm32f4xx_hash_sha1.o
 .debug_loc     0x000055ab      0x68a obj\release\spl\src\stm32f4xx_i2c.o
 .debug_loc     0x00005c35       0x62 obj\release\spl\src\stm32f4xx_iwdg.o
 .debug_loc     0x00005c97      0x111 obj\release\spl\src\stm32f4xx_pwr.o
 .debug_loc     0x00005da8      0xb54 obj\release\spl\src\stm32f4xx_rcc.o
 .debug_loc     0x000068fc       0xa2 obj\release\spl\src\stm32f4xx_rng.o
 .debug_loc     0x0000699e     0x15fe obj\release\spl\src\stm32f4xx_rtc.o
 .debug_loc     0x00007f9c      0x1b2 obj\release\spl\src\stm32f4xx_sdio.o
 .debug_loc     0x0000814e      0x5f7 obj\release\spl\src\stm32f4xx_spi.o
 .debug_loc     0x00008745       0xa6 obj\release\spl\src\stm32f4xx_syscfg.o
 .debug_loc     0x000087eb     0x1f6c obj\release\spl\src\stm32f4xx_tim.o
 .debug_loc     0x0000a757      0x931 obj\release\spl\src\stm32f4xx_usart.o
 .debug_loc     0x0000b088       0xd1 obj\release\spl\src\stm32f4xx_wwdg.o
 .debug_loc     0x0000b159      0x32b obj\release\src\filter_noise_reduction.o
 .debug_loc     0x0000b484       0x65 obj\release\src\io_audio.o
 .debug_loc     0x0000b4e9      0x7c8 obj\release\src\io_display.o
 .debug_loc     0x0000bcb1       0xa5 obj\release\src\main.o
 .debug_loc     0x0000bd56      0x13b obj\release\src\system_stm32f4xx.o
 .debug_loc     0x0000be91      0x381 obj\release\src\tm_enc\tm_stm32f4_exti.o
 .debug_loc     0x0000c212      0x11d obj\release\src\tm_enc\tm_stm32f4_rotary_encoder.o
 .debug_loc     0x0000c32f      0x72b obj\release\src\tm_spi\tm_stm32f4_gpio.o
 .debug_loc     0x0000ca5a     0x4c4b obj\release\src\tm_spi\tm_stm32f4_ili9341.o
 .debug_loc     0x000116a5     0x18e4 obj\release\src\tm_spi\tm_stm32f4_spi.o
 .debug_loc     0x00012f89      0x1a2 ..\CMSIS-4.5.0\CMSIS-4.5.0\CMSIS\Lib\GCC\libarm_cortexM4lf_math.a(arm_q15_to_float.o)
 .debug_loc     0x0001312b      0x3a3 ..\CMSIS-4.5.0\CMSIS-4.5.0\CMSIS\Lib\GCC\libarm_cortexM4lf_math.a(arm_float_to_q15.o)
 .debug_loc     0x000134ce      0x178 ..\CMSIS-4.5.0\CMSIS-4.5.0\CMSIS\Lib\GCC\libarm_cortexM4lf_math.a(arm_max_f32.o)
 .debug_loc     0x00013646     0x1053 ..\CMSIS-4.5.0\CMSIS-4.5.0\CMSIS\Lib\GCC\libarm_cortexM4lf_math.a(arm_cfft_f32.o)
 .debug_loc     0x00014699      0x106 ..\CMSIS-4.5.0\CMSIS-4.5.0\CMSIS\Lib\GCC\libarm_cortexM4lf_math.a(arm_lms_init_f32.o)
 .debug_loc     0x0001479f      0x6d9 ..\CMSIS-4.5.0\CMSIS-4.5.0\CMSIS\Lib\GCC\libarm_cortexM4lf_math.a(arm_lms_f32.o)
 .debug_loc     0x00014e78       0xc2 ..\CMSIS-4.5.0\CMSIS-4.5.0\CMSIS\Lib\GCC\libarm_cortexM4lf_math.a(arm_fir_init_f32.o)
 .debug_loc     0x00014f3a     0x1167 ..\CMSIS-4.5.0\CMSIS-4.5.0\CMSIS\Lib\GCC\libarm_cortexM4lf_math.a(arm_fir_f32.o)
 .debug_loc     0x000160a1      0x787 ..\CMSIS-4.5.0\CMSIS-4.5.0\CMSIS\Lib\GCC\libarm_cortexM4lf_math.a(arm_cmplx_mag_f32.o)
 .debug_loc     0x00016828       0xd8 ..\CMSIS-4.5.0\CMSIS-4.5.0\CMSIS\Lib\GCC\libarm_cortexM4lf_math.a(arm_sin_f32.o)
 .debug_loc     0x00016900       0x96 ..\CMSIS-4.5.0\CMSIS-4.5.0\CMSIS\Lib\GCC\libarm_cortexM4lf_math.a(arm_cos_f32.o)
 .debug_loc     0x00016996      0x966 ..\CMSIS-4.5.0\CMSIS-4.5.0\CMSIS\Lib\GCC\libarm_cortexM4lf_math.a(arm_cfft_radix8_f32.o)

.debug_aranges  0x00000000     0x1b40
 .debug_aranges
                0x00000000       0x40 obj\release\spl\src\misc.o
 .debug_aranges
                0x00000040      0x140 obj\release\spl\src\stm32f4xx_adc.o
 .debug_aranges
                0x00000180       0xd8 obj\release\spl\src\stm32f4xx_can.o
 .debug_aranges
                0x00000258       0x48 obj\release\spl\src\stm32f4xx_crc.o
 .debug_aranges
                0x000002a0       0xa0 obj\release\spl\src\stm32f4xx_cryp.o
 .debug_aranges
                0x00000340       0x30 obj\release\spl\src\stm32f4xx_cryp_aes.o
 .debug_aranges
                0x00000370       0x28 obj\release\spl\src\stm32f4xx_cryp_des.o
 .debug_aranges
                0x00000398       0x28 obj\release\spl\src\stm32f4xx_cryp_tdes.o
 .debug_aranges
                0x000003c0       0x90 obj\release\spl\src\stm32f4xx_dac.o
 .debug_aranges
                0x00000450       0x40 obj\release\spl\src\stm32f4xx_dbgmcu.o
 .debug_aranges
                0x00000490       0x88 obj\release\spl\src\stm32f4xx_dcmi.o
 .debug_aranges
                0x00000518       0xa8 obj\release\spl\src\stm32f4xx_dma.o
 .debug_aranges
                0x000005c0       0x50 obj\release\spl\src\stm32f4xx_exti.o
 .debug_aranges
                0x00000610      0x108 obj\release\spl\src\stm32f4xx_flash.o
 .debug_aranges
                0x00000718       0xb0 obj\release\spl\src\stm32f4xx_fsmc.o
 .debug_aranges
                0x000007c8       0x88 obj\release\spl\src\stm32f4xx_gpio.o
 .debug_aranges
                0x00000850       0xa0 obj\release\spl\src\stm32f4xx_hash.o
 .debug_aranges
                0x000008f0       0x28 obj\release\spl\src\stm32f4xx_hash_md5.o
 .debug_aranges
                0x00000918       0x28 obj\release\spl\src\stm32f4xx_hash_sha1.o
 .debug_aranges
                0x00000940      0x110 obj\release\spl\src\stm32f4xx_i2c.o
 .debug_aranges
                0x00000a50       0x48 obj\release\spl\src\stm32f4xx_iwdg.o
 .debug_aranges
                0x00000a98       0x78 obj\release\spl\src\stm32f4xx_pwr.o
 .debug_aranges
                0x00000b10      0x178 obj\release\spl\src\stm32f4xx_rcc.o
 .debug_aranges
                0x00000c88       0x50 obj\release\spl\src\stm32f4xx_rng.o
 .debug_aranges
                0x00000cd8      0x1d0 obj\release\spl\src\stm32f4xx_rtc.o
 .debug_aranges
                0x00000ea8       0xf8 obj\release\spl\src\stm32f4xx_sdio.o
 .debug_aranges
                0x00000fa0       0xe0 obj\release\spl\src\stm32f4xx_spi.o
 .debug_aranges
                0x00001080       0x48 obj\release\spl\src\stm32f4xx_syscfg.o
 .debug_aranges
                0x000010c8      0x2c8 obj\release\spl\src\stm32f4xx_tim.o
 .debug_aranges
                0x00001390      0x100 obj\release\spl\src\stm32f4xx_usart.o
 .debug_aranges
                0x00001490       0x58 obj\release\spl\src\stm32f4xx_wwdg.o
 .debug_aranges
                0x000014e8       0x18 obj\release\src\filter_audio_segnal.o
 .debug_aranges
                0x00001500       0x28 obj\release\src\filter_noise_reduction.o
 .debug_aranges
                0x00001528       0x30 obj\release\src\io_audio.o
 .debug_aranges
                0x00001558       0x90 obj\release\src\io_display.o
 .debug_aranges
                0x000015e8       0x58 obj\release\src\main.o
 .debug_aranges
                0x00001640       0x50 obj\release\src\morsedecode.o
 .debug_aranges
                0x00001690       0x20 obj\release\src\startup_stm32f4xx.o
 .debug_aranges
                0x000016b0       0x28 obj\release\src\system_stm32f4xx.o
 .debug_aranges
                0x000016d8       0x68 obj\release\src\tm_enc\tm_stm32f4_exti.o
 .debug_aranges
                0x00001740       0x38 obj\release\src\tm_enc\tm_stm32f4_rotary_encoder.o
 .debug_aranges
                0x00001778       0x38 obj\release\src\tm_spi\tm_stm32f4_disco.o
 .debug_aranges
                0x000017b0       0x18 obj\release\src\tm_spi\tm_stm32f4_fonts.o
 .debug_aranges
                0x000017c8       0x58 obj\release\src\tm_spi\tm_stm32f4_gpio.o
 .debug_aranges
                0x00001820       0xb0 obj\release\src\tm_spi\tm_stm32f4_ili9341.o
 .debug_aranges
                0x000018d0       0x90 obj\release\src\tm_spi\tm_stm32f4_spi.o
 .debug_aranges
                0x00001960       0x18 ..\CMSIS-4.5.0\CMSIS-4.5.0\CMSIS\Lib\GCC\libarm_cortexM4lf_math.a(arm_const_structs.o)
 .debug_aranges
                0x00001978       0x18 ..\CMSIS-4.5.0\CMSIS-4.5.0\CMSIS\Lib\GCC\libarm_cortexM4lf_math.a(arm_common_tables.o)
 .debug_aranges
                0x00001990       0x20 ..\CMSIS-4.5.0\CMSIS-4.5.0\CMSIS\Lib\GCC\libarm_cortexM4lf_math.a(arm_q15_to_float.o)
 .debug_aranges
                0x000019b0       0x20 ..\CMSIS-4.5.0\CMSIS-4.5.0\CMSIS\Lib\GCC\libarm_cortexM4lf_math.a(arm_float_to_q15.o)
 .debug_aranges
                0x000019d0       0x20 ..\CMSIS-4.5.0\CMSIS-4.5.0\CMSIS\Lib\GCC\libarm_cortexM4lf_math.a(arm_max_f32.o)
 .debug_aranges
                0x000019f0       0x30 ..\CMSIS-4.5.0\CMSIS-4.5.0\CMSIS\Lib\GCC\libarm_cortexM4lf_math.a(arm_cfft_f32.o)
 .debug_aranges
                0x00001a20       0x20 ..\CMSIS-4.5.0\CMSIS-4.5.0\CMSIS\Lib\GCC\libarm_cortexM4lf_math.a(arm_lms_init_f32.o)
 .debug_aranges
                0x00001a40       0x20 ..\CMSIS-4.5.0\CMSIS-4.5.0\CMSIS\Lib\GCC\libarm_cortexM4lf_math.a(arm_lms_f32.o)
 .debug_aranges
                0x00001a60       0x20 ..\CMSIS-4.5.0\CMSIS-4.5.0\CMSIS\Lib\GCC\libarm_cortexM4lf_math.a(arm_fir_init_f32.o)
 .debug_aranges
                0x00001a80       0x20 ..\CMSIS-4.5.0\CMSIS-4.5.0\CMSIS\Lib\GCC\libarm_cortexM4lf_math.a(arm_fir_f32.o)
 .debug_aranges
                0x00001aa0       0x20 ..\CMSIS-4.5.0\CMSIS-4.5.0\CMSIS\Lib\GCC\libarm_cortexM4lf_math.a(arm_cmplx_mag_f32.o)
 .debug_aranges
                0x00001ac0       0x20 ..\CMSIS-4.5.0\CMSIS-4.5.0\CMSIS\Lib\GCC\libarm_cortexM4lf_math.a(arm_sin_f32.o)
 .debug_aranges
                0x00001ae0       0x20 ..\CMSIS-4.5.0\CMSIS-4.5.0\CMSIS\Lib\GCC\libarm_cortexM4lf_math.a(arm_cos_f32.o)
 .debug_aranges
                0x00001b00       0x20 ..\CMSIS-4.5.0\CMSIS-4.5.0\CMSIS\Lib\GCC\libarm_cortexM4lf_math.a(arm_bitreversal2.o)
 .debug_aranges
                0x00001b20       0x20 ..\CMSIS-4.5.0\CMSIS-4.5.0\CMSIS\Lib\GCC\libarm_cortexM4lf_math.a(arm_cfft_radix8_f32.o)

.debug_ranges   0x00000000     0x50e8
 .debug_ranges  0x00000000       0x30 obj\release\spl\src\misc.o
 .debug_ranges  0x00000030      0x130 obj\release\spl\src\stm32f4xx_adc.o
 .debug_ranges  0x00000160      0x138 obj\release\spl\src\stm32f4xx_can.o
 .debug_ranges  0x00000298       0x38 obj\release\spl\src\stm32f4xx_crc.o
 .debug_ranges  0x000002d0       0x90 obj\release\spl\src\stm32f4xx_cryp.o
 .debug_ranges  0x00000360      0x3e0 obj\release\spl\src\stm32f4xx_cryp_aes.o
 .debug_ranges  0x00000740       0x90 obj\release\spl\src\stm32f4xx_cryp_des.o
 .debug_ranges  0x000007d0      0x150 obj\release\spl\src\stm32f4xx_cryp_tdes.o
 .debug_ranges  0x00000920       0x80 obj\release\spl\src\stm32f4xx_dac.o
 .debug_ranges  0x000009a0       0x30 obj\release\spl\src\stm32f4xx_dbgmcu.o
 .debug_ranges  0x000009d0       0x78 obj\release\spl\src\stm32f4xx_dcmi.o
 .debug_ranges  0x00000a48       0x98 obj\release\spl\src\stm32f4xx_dma.o
 .debug_ranges  0x00000ae0       0x40 obj\release\spl\src\stm32f4xx_exti.o
 .debug_ranges  0x00000b20      0x790 obj\release\spl\src\stm32f4xx_flash.o
 .debug_ranges  0x000012b0       0xa0 obj\release\spl\src\stm32f4xx_fsmc.o
 .debug_ranges  0x00001350       0x78 obj\release\spl\src\stm32f4xx_gpio.o
 .debug_ranges  0x000013c8       0x90 obj\release\spl\src\stm32f4xx_hash.o
 .debug_ranges  0x00001458       0x48 obj\release\spl\src\stm32f4xx_hash_md5.o
 .debug_ranges  0x000014a0       0x78 obj\release\spl\src\stm32f4xx_hash_sha1.o
 .debug_ranges  0x00001518      0x100 obj\release\spl\src\stm32f4xx_i2c.o
 .debug_ranges  0x00001618       0x38 obj\release\spl\src\stm32f4xx_iwdg.o
 .debug_ranges  0x00001650       0x68 obj\release\spl\src\stm32f4xx_pwr.o
 .debug_ranges  0x000016b8      0x188 obj\release\spl\src\stm32f4xx_rcc.o
 .debug_ranges  0x00001840       0x40 obj\release\spl\src\stm32f4xx_rng.o
 .debug_ranges  0x00001880      0x3c0 obj\release\spl\src\stm32f4xx_rtc.o
 .debug_ranges  0x00001c40       0xe8 obj\release\spl\src\stm32f4xx_sdio.o
 .debug_ranges  0x00001d28       0xd0 obj\release\spl\src\stm32f4xx_spi.o
 .debug_ranges  0x00001df8       0x38 obj\release\spl\src\stm32f4xx_syscfg.o
 .debug_ranges  0x00001e30      0x450 obj\release\spl\src\stm32f4xx_tim.o
 .debug_ranges  0x00002280       0xf0 obj\release\spl\src\stm32f4xx_usart.o
 .debug_ranges  0x00002370       0x48 obj\release\spl\src\stm32f4xx_wwdg.o
 .debug_ranges  0x000023b8       0xb0 obj\release\src\filter_noise_reduction.o
 .debug_ranges  0x00002468       0x20 obj\release\src\io_audio.o
 .debug_ranges  0x00002488      0x1b0 obj\release\src\io_display.o
 .debug_ranges  0x00002638       0x90 obj\release\src\main.o
 .debug_ranges  0x000026c8       0x88 obj\release\src\morsedecode.o
 .debug_ranges  0x00002750       0x30 obj\release\src\system_stm32f4xx.o
 .debug_ranges  0x00002780       0x78 obj\release\src\tm_enc\tm_stm32f4_exti.o
 .debug_ranges  0x000027f8       0x28 obj\release\src\tm_enc\tm_stm32f4_rotary_encoder.o
 .debug_ranges  0x00002820       0x28 obj\release\src\tm_spi\tm_stm32f4_disco.o
 .debug_ranges  0x00002848       0x78 obj\release\src\tm_spi\tm_stm32f4_gpio.o
 .debug_ranges  0x000028c0     0x2348 obj\release\src\tm_spi\tm_stm32f4_ili9341.o
 .debug_ranges  0x00004c08      0x350 obj\release\src\tm_spi\tm_stm32f4_spi.o
 .debug_ranges  0x00004f58       0x10 ..\CMSIS-4.5.0\CMSIS-4.5.0\CMSIS\Lib\GCC\libarm_cortexM4lf_math.a(arm_q15_to_float.o)
 .debug_ranges  0x00004f68       0x10 ..\CMSIS-4.5.0\CMSIS-4.5.0\CMSIS\Lib\GCC\libarm_cortexM4lf_math.a(arm_float_to_q15.o)
 .debug_ranges  0x00004f78       0x10 ..\CMSIS-4.5.0\CMSIS-4.5.0\CMSIS\Lib\GCC\libarm_cortexM4lf_math.a(arm_max_f32.o)
 .debug_ranges  0x00004f88       0x20 ..\CMSIS-4.5.0\CMSIS-4.5.0\CMSIS\Lib\GCC\libarm_cortexM4lf_math.a(arm_cfft_f32.o)
 .debug_ranges  0x00004fa8       0x10 ..\CMSIS-4.5.0\CMSIS-4.5.0\CMSIS\Lib\GCC\libarm_cortexM4lf_math.a(arm_lms_init_f32.o)
 .debug_ranges  0x00004fb8       0x10 ..\CMSIS-4.5.0\CMSIS-4.5.0\CMSIS\Lib\GCC\libarm_cortexM4lf_math.a(arm_lms_f32.o)
 .debug_ranges  0x00004fc8       0x10 ..\CMSIS-4.5.0\CMSIS-4.5.0\CMSIS\Lib\GCC\libarm_cortexM4lf_math.a(arm_fir_init_f32.o)
 .debug_ranges  0x00004fd8       0x10 ..\CMSIS-4.5.0\CMSIS-4.5.0\CMSIS\Lib\GCC\libarm_cortexM4lf_math.a(arm_fir_f32.o)
 .debug_ranges  0x00004fe8       0xd0 ..\CMSIS-4.5.0\CMSIS-4.5.0\CMSIS\Lib\GCC\libarm_cortexM4lf_math.a(arm_cmplx_mag_f32.o)
 .debug_ranges  0x000050b8       0x10 ..\CMSIS-4.5.0\CMSIS-4.5.0\CMSIS\Lib\GCC\libarm_cortexM4lf_math.a(arm_sin_f32.o)
 .debug_ranges  0x000050c8       0x10 ..\CMSIS-4.5.0\CMSIS-4.5.0\CMSIS\Lib\GCC\libarm_cortexM4lf_math.a(arm_cos_f32.o)
 .debug_ranges  0x000050d8       0x10 ..\CMSIS-4.5.0\CMSIS-4.5.0\CMSIS\Lib\GCC\libarm_cortexM4lf_math.a(arm_cfft_radix8_f32.o)

.debug_line     0x00000000     0xe638
 .debug_line    0x00000000      0x1d8 obj\release\spl\src\misc.o
 .debug_line    0x000001d8      0x4ef obj\release\spl\src\stm32f4xx_adc.o
 .debug_line    0x000006c7      0x563 obj\release\spl\src\stm32f4xx_can.o
 .debug_line    0x00000c2a      0x1c5 obj\release\spl\src\stm32f4xx_crc.o
 .debug_line    0x00000def      0x324 obj\release\spl\src\stm32f4xx_cryp.o
 .debug_line    0x00001113      0x464 obj\release\spl\src\stm32f4xx_cryp_aes.o
 .debug_line    0x00001577      0x279 obj\release\spl\src\stm32f4xx_cryp_des.o
 .debug_line    0x000017f0      0x28f obj\release\spl\src\stm32f4xx_cryp_tdes.o
 .debug_line    0x00001a7f      0x2dc obj\release\spl\src\stm32f4xx_dac.o
 .debug_line    0x00001d5b      0x1ac obj\release\spl\src\stm32f4xx_dbgmcu.o
 .debug_line    0x00001f07      0x297 obj\release\spl\src\stm32f4xx_dcmi.o
 .debug_line    0x0000219e      0x386 obj\release\spl\src\stm32f4xx_dma.o
 .debug_line    0x00002524      0x214 obj\release\spl\src\stm32f4xx_exti.o
 .debug_line    0x00002738      0x816 obj\release\spl\src\stm32f4xx_flash.o
 .debug_line    0x00002f4e      0x401 obj\release\spl\src\stm32f4xx_fsmc.o
 .debug_line    0x0000334f      0x30b obj\release\spl\src\stm32f4xx_gpio.o
 .debug_line    0x0000365a      0x2e8 obj\release\spl\src\stm32f4xx_hash.o
 .debug_line    0x00003942      0x2c1 obj\release\spl\src\stm32f4xx_hash_md5.o
 .debug_line    0x00003c03      0x2c2 obj\release\spl\src\stm32f4xx_hash_sha1.o
 .debug_line    0x00003ec5      0x46b obj\release\spl\src\stm32f4xx_i2c.o
 .debug_line    0x00004330      0x1b9 obj\release\spl\src\stm32f4xx_iwdg.o
 .debug_line    0x000044e9      0x25e obj\release\spl\src\stm32f4xx_pwr.o
 .debug_line    0x00004747      0x519 obj\release\spl\src\stm32f4xx_rcc.o
 .debug_line    0x00004c60      0x1f0 obj\release\spl\src\stm32f4xx_rng.o
 .debug_line    0x00004e50      0xa6a obj\release\spl\src\stm32f4xx_rtc.o
 .debug_line    0x000058ba      0x39e obj\release\spl\src\stm32f4xx_sdio.o
 .debug_line    0x00005c58      0x3f3 obj\release\spl\src\stm32f4xx_spi.o
 .debug_line    0x0000604b      0x1df obj\release\spl\src\stm32f4xx_syscfg.o
 .debug_line    0x0000622a      0xb8c obj\release\spl\src\stm32f4xx_tim.o
 .debug_line    0x00006db6      0x490 obj\release\spl\src\stm32f4xx_usart.o
 .debug_line    0x00007246      0x203 obj\release\spl\src\stm32f4xx_wwdg.o
 .debug_line    0x00007449      0x1a8 obj\release\src\filter_audio_segnal.o
 .debug_line    0x000075f1      0x3ef obj\release\src\filter_noise_reduction.o
 .debug_line    0x000079e0      0x312 obj\release\src\io_audio.o
 .debug_line    0x00007cf2      0x5da obj\release\src\io_display.o
 .debug_line    0x000082cc      0x3b9 obj\release\src\main.o
 .debug_line    0x00008685      0x33d obj\release\src\morsedecode.o
 .debug_line    0x000089c2       0xcc obj\release\src\startup_stm32f4xx.o
 .debug_line    0x00008a8e      0x1c8 obj\release\src\system_stm32f4xx.o
 .debug_line    0x00008c56      0x314 obj\release\src\tm_enc\tm_stm32f4_exti.o
 .debug_line    0x00008f6a      0x232 obj\release\src\tm_enc\tm_stm32f4_rotary_encoder.o
 .debug_line    0x0000919c      0x1b9 obj\release\src\tm_spi\tm_stm32f4_disco.o
 .debug_line    0x00009355      0x155 obj\release\src\tm_spi\tm_stm32f4_fonts.o
 .debug_line    0x000094aa      0x317 obj\release\src\tm_spi\tm_stm32f4_gpio.o
 .debug_line    0x000097c1     0x26c6 obj\release\src\tm_spi\tm_stm32f4_ili9341.o
 .debug_line    0x0000be87      0x613 obj\release\src\tm_spi\tm_stm32f4_spi.o
 .debug_line    0x0000c49a      0x145 ..\CMSIS-4.5.0\CMSIS-4.5.0\CMSIS\Lib\GCC\libarm_cortexM4lf_math.a(arm_const_structs.o)
 .debug_line    0x0000c5df      0x12e ..\CMSIS-4.5.0\CMSIS-4.5.0\CMSIS\Lib\GCC\libarm_cortexM4lf_math.a(arm_common_tables.o)
 .debug_line    0x0000c70d      0x156 ..\CMSIS-4.5.0\CMSIS-4.5.0\CMSIS\Lib\GCC\libarm_cortexM4lf_math.a(arm_q15_to_float.o)
 .debug_line    0x0000c863      0x175 ..\CMSIS-4.5.0\CMSIS-4.5.0\CMSIS\Lib\GCC\libarm_cortexM4lf_math.a(arm_float_to_q15.o)
 .debug_line    0x0000c9d8      0x16d ..\CMSIS-4.5.0\CMSIS-4.5.0\CMSIS\Lib\GCC\libarm_cortexM4lf_math.a(arm_max_f32.o)
 .debug_line    0x0000cb45      0x77e ..\CMSIS-4.5.0\CMSIS-4.5.0\CMSIS\Lib\GCC\libarm_cortexM4lf_math.a(arm_cfft_f32.o)
 .debug_line    0x0000d2c3      0x150 ..\CMSIS-4.5.0\CMSIS-4.5.0\CMSIS\Lib\GCC\libarm_cortexM4lf_math.a(arm_lms_init_f32.o)
 .debug_line    0x0000d413      0x1b3 ..\CMSIS-4.5.0\CMSIS-4.5.0\CMSIS\Lib\GCC\libarm_cortexM4lf_math.a(arm_lms_f32.o)
 .debug_line    0x0000d5c6      0x14d ..\CMSIS-4.5.0\CMSIS-4.5.0\CMSIS\Lib\GCC\libarm_cortexM4lf_math.a(arm_fir_init_f32.o)
 .debug_line    0x0000d713      0x320 ..\CMSIS-4.5.0\CMSIS-4.5.0\CMSIS\Lib\GCC\libarm_cortexM4lf_math.a(arm_fir_f32.o)
 .debug_line    0x0000da33      0x20f ..\CMSIS-4.5.0\CMSIS-4.5.0\CMSIS\Lib\GCC\libarm_cortexM4lf_math.a(arm_cmplx_mag_f32.o)
 .debug_line    0x0000dc42      0x177 ..\CMSIS-4.5.0\CMSIS-4.5.0\CMSIS\Lib\GCC\libarm_cortexM4lf_math.a(arm_sin_f32.o)
 .debug_line    0x0000ddb9      0x16d ..\CMSIS-4.5.0\CMSIS-4.5.0\CMSIS\Lib\GCC\libarm_cortexM4lf_math.a(arm_cos_f32.o)
 .debug_line    0x0000df26       0x98 ..\CMSIS-4.5.0\CMSIS-4.5.0\CMSIS\Lib\GCC\libarm_cortexM4lf_math.a(arm_bitreversal2.o)
 .debug_line    0x0000dfbe      0x67a ..\CMSIS-4.5.0\CMSIS-4.5.0\CMSIS\Lib\GCC\libarm_cortexM4lf_math.a(arm_cfft_radix8_f32.o)

.debug_str      0x00000000     0x81d0
 .debug_str     0x00000000      0x3ca obj\release\spl\src\misc.o
                                0x423 (size before relaxing)
 .debug_str     0x000003ca      0x613 obj\release\spl\src\stm32f4xx_adc.o
                                0x851 (size before relaxing)
 .debug_str     0x000009dd      0x51a obj\release\spl\src\stm32f4xx_can.o
                                0x7aa (size before relaxing)
 .debug_str     0x00000ef7       0x99 obj\release\spl\src\stm32f4xx_crc.o
                                0x2a0 (size before relaxing)
 .debug_str     0x00000f90      0x393 obj\release\spl\src\stm32f4xx_cryp.o
                                0x629 (size before relaxing)
 .debug_str     0x00001323       0xe5 obj\release\spl\src\stm32f4xx_cryp_aes.o
                                0x4af (size before relaxing)
 .debug_str     0x00001408       0x37 obj\release\spl\src\stm32f4xx_cryp_des.o
                                0x49a (size before relaxing)
 .debug_str     0x0000143f       0x87 obj\release\spl\src\stm32f4xx_cryp_tdes.o
                                0x4a0 (size before relaxing)
 .debug_str     0x000014c6      0x220 obj\release\spl\src\stm32f4xx_dac.o
                                0x492 (size before relaxing)
 .debug_str     0x000016e6       0xab obj\release\spl\src\stm32f4xx_dbgmcu.o
                                0x295 (size before relaxing)
 .debug_str     0x00001791      0x2d0 obj\release\spl\src\stm32f4xx_dcmi.o
                                0x51f (size before relaxing)
 .debug_str     0x00001a61      0x345 obj\release\spl\src\stm32f4xx_dma.o
                                0x589 (size before relaxing)
 .debug_str     0x00001da6      0x13c obj\release\spl\src\stm32f4xx_exti.o
                                0x39f (size before relaxing)
 .debug_str     0x00001ee2      0x39a obj\release\spl\src\stm32f4xx_flash.o
                                0x5e7 (size before relaxing)
 .debug_str     0x0000227c      0x5aa obj\release\spl\src\stm32f4xx_fsmc.o
                                0x7df (size before relaxing)
 .debug_str     0x00002826      0x26f obj\release\spl\src\stm32f4xx_gpio.o
                                0x50f (size before relaxing)
 .debug_str     0x00002a95      0x23f obj\release\spl\src\stm32f4xx_hash.o
                                0x49e (size before relaxing)
 .debug_str     0x00002cd4       0x83 obj\release\spl\src\stm32f4xx_hash_md5.o
                                0x3b2 (size before relaxing)
 .debug_str     0x00002d57       0x5d obj\release\spl\src\stm32f4xx_hash_sha1.o
                                0x3b7 (size before relaxing)
 .debug_str     0x00002db4      0x3e4 obj\release\spl\src\stm32f4xx_i2c.o
                                0x6ad (size before relaxing)
 .debug_str     0x00003198       0xb7 obj\release\spl\src\stm32f4xx_iwdg.o
                                0x2c1 (size before relaxing)
 .debug_str     0x0000324f      0x14a obj\release\spl\src\stm32f4xx_pwr.o
                                0x3f1 (size before relaxing)
 .debug_str     0x00003399      0x52a obj\release\spl\src\stm32f4xx_rcc.o
                                0x8a5 (size before relaxing)
 .debug_str     0x000038c3       0x9c obj\release\spl\src\stm32f4xx_rng.o
                                0x2c8 (size before relaxing)
 .debug_str     0x0000395f      0x933 obj\release\spl\src\stm32f4xx_rtc.o
                                0xb9d (size before relaxing)
 .debug_str     0x00004292      0x429 obj\release\spl\src\stm32f4xx_sdio.o
                                0x675 (size before relaxing)
 .debug_str     0x000046bb      0x35f obj\release\spl\src\stm32f4xx_spi.o
                                0x70d (size before relaxing)
 .debug_str     0x00004a1a      0x129 obj\release\spl\src\stm32f4xx_syscfg.o
                                0x360 (size before relaxing)
 .debug_str     0x00004b43      0xb16 obj\release\spl\src\stm32f4xx_tim.o
                                0xe38 (size before relaxing)
 .debug_str     0x00005659      0x3ff obj\release\spl\src\stm32f4xx_usart.o
                                0x724 (size before relaxing)
 .debug_str     0x00005a58       0xb3 obj\release\spl\src\stm32f4xx_wwdg.o
                                0x2e3 (size before relaxing)
 .debug_str     0x00005b0b       0xf6 obj\release\src\filter_audio_segnal.o
                                0x2d4 (size before relaxing)
 .debug_str     0x00005c01      0x2ac obj\release\src\filter_noise_reduction.o
                                0x570 (size before relaxing)
 .debug_str     0x00005ead      0x5c8 obj\release\src\io_audio.o
                               0x100f (size before relaxing)
 .debug_str     0x00006475      0x2e9 obj\release\src\io_display.o
                                0xe32 (size before relaxing)
 .debug_str     0x0000675e      0x258 obj\release\src\main.o
                                0x87e (size before relaxing)
 .debug_str     0x000069b6      0x127 obj\release\src\morsedecode.o
                                0x379 (size before relaxing)
 .debug_str     0x00006add       0x62 obj\release\src\system_stm32f4xx.o
                                0x401 (size before relaxing)
 .debug_str     0x00006b3f      0x2be obj\release\src\tm_enc\tm_stm32f4_exti.o
                                0xbeb (size before relaxing)
 .debug_str     0x00006dfd       0x66 obj\release\src\tm_enc\tm_stm32f4_rotary_encoder.o
                                0x4e2 (size before relaxing)
 .debug_str     0x00006e63       0x91 obj\release\src\tm_spi\tm_stm32f4_disco.o
                                0x3a5 (size before relaxing)
 .debug_str     0x00006ef4       0x52 obj\release\src\tm_spi\tm_stm32f4_fonts.o
                                0x268 (size before relaxing)
 .debug_str     0x00006f46       0xcf obj\release\src\tm_spi\tm_stm32f4_gpio.o
                                0x6bc (size before relaxing)
 .debug_str     0x00007015      0x26a obj\release\src\tm_spi\tm_stm32f4_ili9341.o
                                0x79b (size before relaxing)
 .debug_str     0x0000727f      0x240 obj\release\src\tm_spi\tm_stm32f4_spi.o
                                0x7f2 (size before relaxing)
 .debug_str     0x000074bf      0x792 ..\CMSIS-4.5.0\CMSIS-4.5.0\CMSIS\Lib\GCC\libarm_cortexM4lf_math.a(arm_const_structs.o)
                                0x8dc (size before relaxing)
 .debug_str     0x00007c51      0x125 ..\CMSIS-4.5.0\CMSIS-4.5.0\CMSIS\Lib\GCC\libarm_cortexM4lf_math.a(arm_common_tables.o)
                                0x704 (size before relaxing)
 .debug_str     0x00007d76       0x42 ..\CMSIS-4.5.0\CMSIS-4.5.0\CMSIS\Lib\GCC\libarm_cortexM4lf_math.a(arm_q15_to_float.o)
                                0x245 (size before relaxing)
 .debug_str     0x00007db8       0x34 ..\CMSIS-4.5.0\CMSIS-4.5.0\CMSIS\Lib\GCC\libarm_cortexM4lf_math.a(arm_float_to_q15.o)
                                0x26a (size before relaxing)
 .debug_str     0x00007dec       0x4d ..\CMSIS-4.5.0\CMSIS-4.5.0\CMSIS\Lib\GCC\libarm_cortexM4lf_math.a(arm_max_f32.o)
                                0x24f (size before relaxing)
 .debug_str     0x00007e39      0x10d ..\CMSIS-4.5.0\CMSIS-4.5.0\CMSIS\Lib\GCC\libarm_cortexM4lf_math.a(arm_cfft_f32.o)
                                0x35f (size before relaxing)
 .debug_str     0x00007f46       0x30 ..\CMSIS-4.5.0\CMSIS-4.5.0\CMSIS\Lib\GCC\libarm_cortexM4lf_math.a(arm_lms_init_f32.o)
                                0x265 (size before relaxing)
 .debug_str     0x00007f76       0x46 ..\CMSIS-4.5.0\CMSIS-4.5.0\CMSIS\Lib\GCC\libarm_cortexM4lf_math.a(arm_lms_f32.o)
                                0x282 (size before relaxing)
 .debug_str     0x00007fbc       0x29 ..\CMSIS-4.5.0\CMSIS-4.5.0\CMSIS\Lib\GCC\libarm_cortexM4lf_math.a(arm_fir_init_f32.o)
                                0x265 (size before relaxing)
 .debug_str     0x00007fe5       0x4c ..\CMSIS-4.5.0\CMSIS-4.5.0\CMSIS\Lib\GCC\libarm_cortexM4lf_math.a(arm_fir_f32.o)
                                0x2a0 (size before relaxing)
 .debug_str     0x00008031       0xfb ..\CMSIS-4.5.0\CMSIS-4.5.0\CMSIS\Lib\GCC\libarm_cortexM4lf_math.a(arm_cmplx_mag_f32.o)
                                0x303 (size before relaxing)
 .debug_str     0x0000812c       0x37 ..\CMSIS-4.5.0\CMSIS-4.5.0\CMSIS\Lib\GCC\libarm_cortexM4lf_math.a(arm_sin_f32.o)
                                0x242 (size before relaxing)
 .debug_str     0x00008163       0x2a ..\CMSIS-4.5.0\CMSIS-4.5.0\CMSIS\Lib\GCC\libarm_cortexM4lf_math.a(arm_cos_f32.o)
                                0x242 (size before relaxing)
 .debug_str     0x0000818d       0x43 ..\CMSIS-4.5.0\CMSIS-4.5.0\CMSIS\Lib\GCC\libarm_cortexM4lf_math.a(arm_cfft_radix8_f32.o)
                                0x256 (size before relaxing)

.debug_frame    0x00000000     0x47bc
 .debug_frame   0x00000000       0x74 obj\release\spl\src\misc.o
 .debug_frame   0x00000074      0x2e8 obj\release\spl\src\stm32f4xx_adc.o
 .debug_frame   0x0000035c      0x208 obj\release\spl\src\stm32f4xx_can.o
 .debug_frame   0x00000564       0x70 obj\release\spl\src\stm32f4xx_crc.o
 .debug_frame   0x000005d4      0x150 obj\release\spl\src\stm32f4xx_cryp.o
 .debug_frame   0x00000724       0x98 obj\release\spl\src\stm32f4xx_cryp_aes.o
 .debug_frame   0x000007bc       0x6c obj\release\spl\src\stm32f4xx_cryp_des.o
 .debug_frame   0x00000828       0x6c obj\release\spl\src\stm32f4xx_cryp_tdes.o
 .debug_frame   0x00000894      0x158 obj\release\spl\src\stm32f4xx_dac.o
 .debug_frame   0x000009ec       0x60 obj\release\spl\src\stm32f4xx_dbgmcu.o
 .debug_frame   0x00000a4c      0x110 obj\release\spl\src\stm32f4xx_dcmi.o
 .debug_frame   0x00000b5c      0x1b4 obj\release\spl\src\stm32f4xx_dma.o
 .debug_frame   0x00000d10       0xa4 obj\release\spl\src\stm32f4xx_exti.o
 .debug_frame   0x00000db4      0x2f4 obj\release\spl\src\stm32f4xx_flash.o
 .debug_frame   0x000010a8      0x190 obj\release\spl\src\stm32f4xx_fsmc.o
 .debug_frame   0x00001238      0x160 obj\release\spl\src\stm32f4xx_gpio.o
 .debug_frame   0x00001398      0x144 obj\release\spl\src\stm32f4xx_hash.o
 .debug_frame   0x000014dc       0x68 obj\release\spl\src\stm32f4xx_hash_md5.o
 .debug_frame   0x00001544       0x64 obj\release\spl\src\stm32f4xx_hash_sha1.o
 .debug_frame   0x000015a8      0x274 obj\release\spl\src\stm32f4xx_i2c.o
 .debug_frame   0x0000181c       0x70 obj\release\spl\src\stm32f4xx_iwdg.o
 .debug_frame   0x0000188c       0xe8 obj\release\spl\src\stm32f4xx_pwr.o
 .debug_frame   0x00001974      0x2f0 obj\release\spl\src\stm32f4xx_rcc.o
 .debug_frame   0x00001c64       0x9c obj\release\spl\src\stm32f4xx_rng.o
 .debug_frame   0x00001d00      0x52c obj\release\spl\src\stm32f4xx_rtc.o
 .debug_frame   0x0000222c      0x22c obj\release\spl\src\stm32f4xx_sdio.o
 .debug_frame   0x00002458      0x1fc obj\release\spl\src\stm32f4xx_spi.o
 .debug_frame   0x00002654       0x88 obj\release\spl\src\stm32f4xx_syscfg.o
 .debug_frame   0x000026dc      0x6f8 obj\release\spl\src\stm32f4xx_tim.o
 .debug_frame   0x00002dd4      0x260 obj\release\spl\src\stm32f4xx_usart.o
 .debug_frame   0x00003034       0xa4 obj\release\spl\src\stm32f4xx_wwdg.o
 .debug_frame   0x000030d8       0x6c obj\release\src\filter_noise_reduction.o
 .debug_frame   0x00003144       0x78 obj\release\src\io_audio.o
 .debug_frame   0x000031bc      0x248 obj\release\src\io_display.o
 .debug_frame   0x00003404      0x148 obj\release\src\main.o
 .debug_frame   0x0000354c       0xc0 obj\release\src\morsedecode.o
 .debug_frame   0x0000360c       0x3c obj\release\src\system_stm32f4xx.o
 .debug_frame   0x00003648      0x108 obj\release\src\tm_enc\tm_stm32f4_exti.o
 .debug_frame   0x00003750       0x74 obj\release\src\tm_enc\tm_stm32f4_rotary_encoder.o
 .debug_frame   0x000037c4       0x68 obj\release\src\tm_spi\tm_stm32f4_disco.o
 .debug_frame   0x0000382c       0xe4 obj\release\src\tm_spi\tm_stm32f4_gpio.o
 .debug_frame   0x00003910      0x2d0 obj\release\src\tm_spi\tm_stm32f4_ili9341.o
 .debug_frame   0x00003be0      0x20c obj\release\src\tm_spi\tm_stm32f4_spi.o
 .debug_frame   0x00003dec       0x2c ..\CMSIS-4.5.0\CMSIS-4.5.0\CMSIS\Lib\GCC\libarm_cortexM4lf_math.a(arm_q15_to_float.o)
 .debug_frame   0x00003e18       0x34 ..\CMSIS-4.5.0\CMSIS-4.5.0\CMSIS\Lib\GCC\libarm_cortexM4lf_math.a(arm_float_to_q15.o)
 .debug_frame   0x00003e4c       0x30 ..\CMSIS-4.5.0\CMSIS-4.5.0\CMSIS\Lib\GCC\libarm_cortexM4lf_math.a(arm_max_f32.o)
 .debug_frame   0x00003e7c       0xfc ..\CMSIS-4.5.0\CMSIS-4.5.0\CMSIS\Lib\GCC\libarm_cortexM4lf_math.a(arm_cfft_f32.o)
 .debug_frame   0x00003f78       0x3c ..\CMSIS-4.5.0\CMSIS-4.5.0\CMSIS\Lib\GCC\libarm_cortexM4lf_math.a(arm_lms_init_f32.o)
 .debug_frame   0x00003fb4       0x40 ..\CMSIS-4.5.0\CMSIS-4.5.0\CMSIS\Lib\GCC\libarm_cortexM4lf_math.a(arm_lms_f32.o)
 .debug_frame   0x00003ff4       0x2c ..\CMSIS-4.5.0\CMSIS-4.5.0\CMSIS\Lib\GCC\libarm_cortexM4lf_math.a(arm_fir_init_f32.o)
 .debug_frame   0x00004020       0x98 ..\CMSIS-4.5.0\CMSIS-4.5.0\CMSIS\Lib\GCC\libarm_cortexM4lf_math.a(arm_fir_f32.o)
 .debug_frame   0x000040b8       0x3c ..\CMSIS-4.5.0\CMSIS-4.5.0\CMSIS\Lib\GCC\libarm_cortexM4lf_math.a(arm_cmplx_mag_f32.o)
 .debug_frame   0x000040f4       0x20 ..\CMSIS-4.5.0\CMSIS-4.5.0\CMSIS\Lib\GCC\libarm_cortexM4lf_math.a(arm_sin_f32.o)
 .debug_frame   0x00004114       0x20 ..\CMSIS-4.5.0\CMSIS-4.5.0\CMSIS\Lib\GCC\libarm_cortexM4lf_math.a(arm_cos_f32.o)
 .debug_frame   0x00004134       0x94 ..\CMSIS-4.5.0\CMSIS-4.5.0\CMSIS\Lib\GCC\libarm_cortexM4lf_math.a(arm_cfft_radix8_f32.o)
 .debug_frame   0x000041c8       0x48 c:/program files (x86)/embitz/1.11/share/em_armgcc/bin/../lib/gcc/arm-none-eabi/5.4.1/../../../../arm-none-eabi/lib/armv7e-m/fpu\libm.a(lib_a-cargf.o)
 .debug_frame   0x00004210       0x28 c:/program files (x86)/embitz/1.11/share/em_armgcc/bin/../lib/gcc/arm-none-eabi/5.4.1/../../../../arm-none-eabi/lib/armv7e-m/fpu\libm.a(lib_a-cimagf.o)
 .debug_frame   0x00004238       0x28 c:/program files (x86)/embitz/1.11/share/em_armgcc/bin/../lib/gcc/arm-none-eabi/5.4.1/../../../../arm-none-eabi/lib/armv7e-m/fpu\libm.a(lib_a-crealf.o)
 .debug_frame   0x00004260       0x20 c:/program files (x86)/embitz/1.11/share/em_armgcc/bin/../lib/gcc/arm-none-eabi/5.4.1/../../../../arm-none-eabi/lib/armv7e-m/fpu\libm.a(lib_a-wf_atan2.o)
 .debug_frame   0x00004280       0x50 c:/program files (x86)/embitz/1.11/share/em_armgcc/bin/../lib/gcc/arm-none-eabi/5.4.1/../../../../arm-none-eabi/lib/armv7e-m/fpu\libm.a(lib_a-wf_sqrt.o)
 .debug_frame   0x000042d0       0x48 c:/program files (x86)/embitz/1.11/share/em_armgcc/bin/../lib/gcc/arm-none-eabi/5.4.1/../../../../arm-none-eabi/lib/armv7e-m/fpu\libm.a(lib_a-ef_atan2.o)
 .debug_frame   0x00004318       0x3c c:/program files (x86)/embitz/1.11/share/em_armgcc/bin/../lib/gcc/arm-none-eabi/5.4.1/../../../../arm-none-eabi/lib/armv7e-m/fpu\libm.a(lib_a-ef_sqrt.o)
 .debug_frame   0x00004354       0x20 c:/program files (x86)/embitz/1.11/share/em_armgcc/bin/../lib/gcc/arm-none-eabi/5.4.1/../../../../arm-none-eabi/lib/armv7e-m/fpu\libm.a(lib_a-s_matherr.o)
 .debug_frame   0x00004374       0x2c c:/program files (x86)/embitz/1.11/share/em_armgcc/bin/../lib/gcc/arm-none-eabi/5.4.1/../../../../arm-none-eabi/lib/armv7e-m/fpu\libm.a(lib_a-sf_atan.o)
 .debug_frame   0x000043a0       0x20 c:/program files (x86)/embitz/1.11/share/em_armgcc/bin/../lib/gcc/arm-none-eabi/5.4.1/../../../../arm-none-eabi/lib/armv7e-m/fpu\libm.a(lib_a-sf_fabs.o)
 .debug_frame   0x000043c0       0x20 c:/program files (x86)/embitz/1.11/share/em_armgcc/bin/../lib/gcc/arm-none-eabi/5.4.1/../../../../arm-none-eabi/lib/armv7e-m/fpu\libg_n.a(lib_a-errno.o)
 .debug_frame   0x000043e0       0x28 c:/program files (x86)/embitz/1.11/share/em_armgcc/bin/../lib/gcc/arm-none-eabi/5.4.1/../../../../arm-none-eabi/lib/armv7e-m/fpu\libg_n.a(lib_a-exit.o)
 .debug_frame   0x00004408       0x2c c:/program files (x86)/embitz/1.11/share/em_armgcc/bin/../lib/gcc/arm-none-eabi/5.4.1/../../../../arm-none-eabi/lib/armv7e-m/fpu\libg_n.a(lib_a-init.o)
 .debug_frame   0x00004434       0x20 c:/program files (x86)/embitz/1.11/share/em_armgcc/bin/../lib/gcc/arm-none-eabi/5.4.1/../../../../arm-none-eabi/lib/armv7e-m/fpu\libg_n.a(lib_a-memset.o)
 .debug_frame   0x00004454       0x70 c:/program files (x86)/embitz/1.11/share/em_armgcc/bin/../lib/gcc/arm-none-eabi/5.4.1/../../../../arm-none-eabi/lib/armv7e-m/fpu\libg_n.a(lib_a-sprintf.o)
 .debug_frame   0x000044c4       0x90 c:/program files (x86)/embitz/1.11/share/em_armgcc/bin/../lib/gcc/arm-none-eabi/5.4.1/../../../../arm-none-eabi/lib/armv7e-m/fpu\libg_n.a(lib_a-nano-svfprintf.o)
 .debug_frame   0x00004554       0x60 c:/program files (x86)/embitz/1.11/share/em_armgcc/bin/../lib/gcc/arm-none-eabi/5.4.1/../../../../arm-none-eabi/lib/armv7e-m/fpu\libg_n.a(lib_a-nano-vfprintf_i.o)
 .debug_frame   0x000045b4       0x28 c:/program files (x86)/embitz/1.11/share/em_armgcc/bin/../lib/gcc/arm-none-eabi/5.4.1/../../../../arm-none-eabi/lib/armv7e-m/fpu\libg_n.a(lib_a-memcpy-stub.o)
 .debug_frame   0x000045dc       0x28 c:/program files (x86)/embitz/1.11/share/em_armgcc/bin/../lib/gcc/arm-none-eabi/5.4.1/../../../../arm-none-eabi/lib/armv7e-m/fpu\libg_n.a(lib_a-memmove.o)
 .debug_frame   0x00004604       0x38 c:/program files (x86)/embitz/1.11/share/em_armgcc/bin/../lib/gcc/arm-none-eabi/5.4.1/../../../../arm-none-eabi/lib/armv7e-m/fpu\libg_n.a(lib_a-nano-freer.o)
 .debug_frame   0x0000463c       0x2c c:/program files (x86)/embitz/1.11/share/em_armgcc/bin/../lib/gcc/arm-none-eabi/5.4.1/../../../../arm-none-eabi/lib/armv7e-m/fpu\libg_n.a(lib_a-nano-mallocr.o)
 .debug_frame   0x00004668       0x3c c:/program files (x86)/embitz/1.11/share/em_armgcc/bin/../lib/gcc/arm-none-eabi/5.4.1/../../../../arm-none-eabi/lib/armv7e-m/fpu\libg_n.a(lib_a-nano-reallocr.o)
 .debug_frame   0x000046a4       0x2c c:/program files (x86)/embitz/1.11/share/em_armgcc/bin/../lib/gcc/arm-none-eabi/5.4.1/../../../../arm-none-eabi/lib/armv7e-m/fpu\libg_n.a(lib_a-sbrkr.o)
 .debug_frame   0x000046d0       0x30 c:/program files (x86)/embitz/1.11/share/em_armgcc/bin/../lib/gcc/arm-none-eabi/5.4.1/../../../../arm-none-eabi/lib/armv7e-m/fpu\libg_n.a(lib_a-mlock.o)
 .debug_frame   0x00004700       0x20 c:/program files (x86)/embitz/1.11/share/em_armgcc/bin/../lib/gcc/arm-none-eabi/5.4.1/../../../../arm-none-eabi/lib/armv7e-m/fpu\libg_n.a(lib_a-nano-msizer.o)
 .debug_frame   0x00004720       0x5c c:/program files (x86)/embitz/1.11/share/em_armgcc/bin/../lib/gcc/arm-none-eabi/5.4.1/../../../../arm-none-eabi/lib/armv7e-m/fpu\libg_n.a(lib_a-reent.o)
 .debug_frame   0x0000477c       0x20 c:/program files (x86)/embitz/1.11/share/em_armgcc/bin/../lib/gcc/arm-none-eabi/5.4.1/../../../../arm-none-eabi/lib/armv7e-m/fpu\libnosys_s.a(sbrk.o)
 .debug_frame   0x0000479c       0x20 c:/program files (x86)/embitz/1.11/share/em_armgcc/bin/../lib/gcc/arm-none-eabi/5.4.1/../../../../arm-none-eabi/lib/armv7e-m/fpu\libnosys_s.a(_exit.o)
